
IR.elf:     file format elf32-avr

Sections:
Idx Name          Size      VMA       LMA       File off  Algn
  0 .text         00003814  00000000  00000000  000000b4  2**1
                  CONTENTS, ALLOC, LOAD, READONLY, CODE
  1 .data         0000000c  00800060  00003814  000038c8  2**0
                  CONTENTS, ALLOC, LOAD, DATA
  2 .bss          000000e9  0080006c  0080006c  000038d4  2**0
                  ALLOC
  3 .eeprom       00000200  00810000  00810000  000038d4  2**0
                  CONTENTS, ALLOC, LOAD, DATA
  4 .comment      00000030  00000000  00000000  00003ad4  2**0
                  CONTENTS, READONLY
  5 .note.gnu.avr.deviceinfo 0000003c  00000000  00000000  00003b04  2**2
                  CONTENTS, READONLY
  6 .debug_aranges 00000060  00000000  00000000  00003b40  2**3
                  CONTENTS, READONLY, DEBUGGING
  7 .debug_info   0000072d  00000000  00000000  00003ba0  2**0
                  CONTENTS, READONLY, DEBUGGING
  8 .debug_abbrev 00000523  00000000  00000000  000042cd  2**0
                  CONTENTS, READONLY, DEBUGGING
  9 .debug_line   000002d7  00000000  00000000  000047f0  2**0
                  CONTENTS, READONLY, DEBUGGING
 10 .debug_str    000001af  00000000  00000000  00004ac7  2**0
                  CONTENTS, READONLY, DEBUGGING

Disassembly of section .text:

00000000 <__vectors>:
       0:	0c 94 73 01 	jmp	0x2e6	; 0x2e6 <__ctors_end>
       4:	0c 94 90 01 	jmp	0x320	; 0x320 <__bad_interrupt>
       8:	0c 94 90 01 	jmp	0x320	; 0x320 <__bad_interrupt>
       c:	0c 94 90 01 	jmp	0x320	; 0x320 <__bad_interrupt>
      10:	0c 94 90 01 	jmp	0x320	; 0x320 <__bad_interrupt>
      14:	0c 94 90 01 	jmp	0x320	; 0x320 <__bad_interrupt>
      18:	0c 94 ab 1b 	jmp	0x3756	; 0x3756 <__vector_6>
      1c:	0c 94 90 01 	jmp	0x320	; 0x320 <__bad_interrupt>
      20:	0c 94 90 01 	jmp	0x320	; 0x320 <__bad_interrupt>
      24:	0c 94 90 01 	jmp	0x320	; 0x320 <__bad_interrupt>
      28:	0c 94 90 01 	jmp	0x320	; 0x320 <__bad_interrupt>
      2c:	0c 94 90 01 	jmp	0x320	; 0x320 <__bad_interrupt>
      30:	0c 94 90 01 	jmp	0x320	; 0x320 <__bad_interrupt>
      34:	0c 94 90 01 	jmp	0x320	; 0x320 <__bad_interrupt>
      38:	0c 94 90 01 	jmp	0x320	; 0x320 <__bad_interrupt>
      3c:	0c 94 90 01 	jmp	0x320	; 0x320 <__bad_interrupt>
      40:	0c 94 90 01 	jmp	0x320	; 0x320 <__bad_interrupt>
      44:	0c 94 e3 02 	jmp	0x5c6	; 0x5c6 <__vector_17>
      48:	0c 94 90 01 	jmp	0x320	; 0x320 <__bad_interrupt>
      4c:	0c 94 90 01 	jmp	0x320	; 0x320 <__bad_interrupt>
      50:	0c 94 90 01 	jmp	0x320	; 0x320 <__bad_interrupt>
      54:	d2 01       	movw	r26, r4
      56:	dd 01       	movw	r26, r26
      58:	31 02       	muls	r19, r17
      5a:	31 02       	muls	r19, r17
      5c:	31 02       	muls	r19, r17
      5e:	31 02       	muls	r19, r17
      60:	31 02       	muls	r19, r17
      62:	31 02       	muls	r19, r17
      64:	31 02       	muls	r19, r17
      66:	31 02       	muls	r19, r17
      68:	31 02       	muls	r19, r17
      6a:	e2 01       	movw	r28, r4
      6c:	ee 01       	movw	r28, r28
      6e:	f3 01       	movw	r30, r6
      70:	00 02       	muls	r16, r16
      72:	31 02       	muls	r19, r17
      74:	05 02       	muls	r16, r21
      76:	09 02       	muls	r16, r25
      78:	31 02       	muls	r19, r17
      7a:	31 02       	muls	r19, r17
      7c:	13 02       	muls	r17, r19
      7e:	17 02       	muls	r17, r23
      80:	17 02       	muls	r17, r23
      82:	17 02       	muls	r17, r23
      84:	17 02       	muls	r17, r23
      86:	17 02       	muls	r17, r23
      88:	17 02       	muls	r17, r23
      8a:	1a 02       	muls	r17, r26
      8c:	31 02       	muls	r19, r17
      8e:	20 02       	muls	r18, r16
      90:	31 02       	muls	r19, r17
      92:	31 02       	muls	r19, r17
      94:	31 02       	muls	r19, r17
      96:	31 02       	muls	r19, r17
      98:	31 02       	muls	r19, r17
      9a:	31 02       	muls	r19, r17
      9c:	31 02       	muls	r19, r17
      9e:	31 02       	muls	r19, r17
      a0:	31 02       	muls	r19, r17
      a2:	31 02       	muls	r19, r17
      a4:	2c 02       	muls	r18, r28
      a6:	31 02       	muls	r19, r17
      a8:	31 02       	muls	r19, r17
      aa:	31 02       	muls	r19, r17
      ac:	31 02       	muls	r19, r17
      ae:	31 02       	muls	r19, r17
      b0:	31 02       	muls	r19, r17
      b2:	31 02       	muls	r19, r17
      b4:	31 02       	muls	r19, r17
      b6:	31 02       	muls	r19, r17
      b8:	31 02       	muls	r19, r17
      ba:	cc 01       	movw	r24, r24
      bc:	31 02       	muls	r19, r17
      be:	31 02       	muls	r19, r17
      c0:	31 02       	muls	r19, r17
      c2:	cf 01       	movw	r24, r30
      c4:	b3 0e       	add	r11, r19
      c6:	f8 0e       	add	r15, r24
      c8:	a6 0f       	add	r26, r22
      ca:	f5 0f       	add	r31, r21
      cc:	15 10       	cpse	r1, r5
      ce:	8b 10       	cpse	r8, r11
      d0:	c5 10       	cpse	r12, r5
      d2:	47 11       	cpse	r20, r7
      d4:	e3 10       	cpse	r14, r3
      d6:	16 0f       	add	r17, r22
      d8:	e1 0e       	add	r14, r17
      da:	aa 10       	cpse	r10, r10
      dc:	9c 11       	cpse	r25, r12
      de:	aa 11       	cpse	r26, r10
      e0:	be 11       	cpse	r27, r14
      e2:	01 12       	cpse	r0, r17
      e4:	2a 12       	cpse	r2, r26
      e6:	ae 12       	cpse	r10, r30
      e8:	ae 12       	cpse	r10, r30
      ea:	63 12       	cpse	r6, r19
      ec:	10 11       	cpse	r17, r0
      ee:	77 12       	cpse	r7, r23
      f0:	4f 12       	cpse	r4, r31
      f2:	e4 11       	cpse	r30, r4
      f4:	ae 12       	cpse	r10, r30
      f6:	ae 12       	cpse	r10, r30
      f8:	29 0f       	add	r18, r25
      fa:	35 0f       	add	r19, r21
      fc:	ae 12       	cpse	r10, r30
      fe:	71 11       	cpse	r23, r1
     100:	91 11       	cpse	r25, r1
     102:	87 12       	cpse	r8, r23
     104:	ae 12       	cpse	r10, r30
     106:	d8 11       	cpse	r29, r8
     108:	ae 12       	cpse	r10, r30
     10a:	ae 12       	cpse	r10, r30
     10c:	ae 12       	cpse	r10, r30
     10e:	ae 12       	cpse	r10, r30
     110:	9c 11       	cpse	r25, r12
     112:	8a 0f       	add	r24, r26
     114:	dc 0f       	add	r29, r28
     116:	ae 12       	cpse	r10, r30
     118:	a6 12       	cpse	r10, r22
     11a:	ae 12       	cpse	r10, r30
     11c:	ae 12       	cpse	r10, r30
     11e:	ae 12       	cpse	r10, r30
     120:	ae 12       	cpse	r10, r30
     122:	ae 12       	cpse	r10, r30
     124:	64 10       	cpse	r6, r4
     126:	ae 12       	cpse	r10, r30
     128:	ae 12       	cpse	r10, r30
     12a:	7d 12       	cpse	r7, r29
     12c:	ae 12       	cpse	r10, r30
     12e:	ae 12       	cpse	r10, r30
     130:	ae 12       	cpse	r10, r30
     132:	16 0f       	add	r17, r22
     134:	ae 12       	cpse	r10, r30
     136:	ae 12       	cpse	r10, r30
     138:	ae 12       	cpse	r10, r30
     13a:	88 0f       	add	r24, r24

0000013c <__trampolines_end>:
     13c:	2b 0b       	sbc	r18, r27
     13e:	13 23       	and	r17, r19
     140:	37 0b       	sbc	r19, r23
     142:	13 0b       	sbc	r17, r19
     144:	13 00       	.word	0x0013	; ????
     146:	00 00       	nop
     148:	06 06       	cpc	r0, r22
     14a:	01 00       	.word	0x0001	; ????
	...

0000014d <a1tvbox_param>:
     14d:	20 02 06 01 04 00 00 00 00 01 09 09 11 11 00 00      ...............
     15d:	03                                                  .

0000015e <bose_param>:
     15e:	1f 05 0c 0e 1d 05 0c 04 0a 00 00 00 10 10 01 01     ................
	...

0000016f <thomson_param>:
     16f:	1e 06 0a 3c 4b 06 0a 1a 22 00 04 05 0c 0c 01 00     ...<K...".......
	...

00000180 <irmp16_param>:
     180:	34 04 09 09 10 04 09 04 09 00 00 00 10 10 01 01     4...............
	...

00000191 <nikon_param>:
     191:	16 05 0a 29 40 05 0a 11 1c 00 00 00 02 02 01 00     ...)@...........
	...

000001a2 <ruwido_param>:
     1a2:	17 03 06 03 06 00 00 00 00 00 09 09 11 16 00 00     ................
     1b2:	03                                                  .

000001b3 <grundig_param>:
     1b3:	0f 06 0a 06 0a 00 00 00 00 00 00 01 0b 11 00 01     ................
     1c3:	03                                                  .

000001c4 <bang_olufsen_param>:
     1c4:	0e 02 04 7e 9c 02 04 29 35 00 00 03 13 14 01 00     ...~...)5.......
	...

000001d5 <speaker_param>:
     1d5:	27 0e 18 04 09 04 09 0e 18 00 00 00 0a 0a 01 00     '...............
	...

000001e6 <nubert_param>:
     1e6:	0d 0f 19 03 07 05 0a 0f 18 00 00 00 0a 0a 01 00     ................
	...

000001f7 <recs80ext_param>:
     1f7:	0c 01 04 63 7c 01 04 41 52 02 06 06 0c 0c 01 00     ...c|..AR.......
	...

00000208 <rc6_param>:
     208:	09 05 0c 05 09 00 00 00 00 05 0d 0d 15 15 00 00     ................
     218:	03                                                  .

00000219 <denon_param>:
     219:	08 03 07 17 1e 03 07 09 0d 00 05 05 0f 0f 01 00     ................
	...

0000022a <rc5_param>:
     22a:	07 0b 10 0b 10 00 00 00 00 01 07 07 0d 0d 00 00     ................
     23a:	01                                                  .

0000023b <recs80_param>:
     23b:	06 01 04 63 7c 01 04 41 52 01 04 04 0a 0a 01 00     ...c|..AR.......
	...

0000024c <mitsu_heavy_param>:
     24c:	31 03 09 0d 17 03 09 04 09 28 38 38 48 58 01 00     1........(88HX..
	...

0000025d <kaseikyo_param>:
     25d:	05 03 0a 0e 18 03 0a 04 09 00 10 1c 28 30 01 01     ............(0..
	...

0000026e <matsushita_param>:
     26e:	04 07 13 17 38 07 13 07 13 0c 18 00 0c 18 01 01     ....8...........
	...

0000027f <telefunken_param>:
     27f:	22 05 0d 0f 1e 05 0d 05 0d 00 00 00 0f 0f 01 00     "...............
	...

00000290 <samsung_param>:
     290:	03 05 0c 0f 1e 05 0c 04 0b 00 10 15 25 25 01 01     ............%%..
	...

000002a1 <nec42_param>:
     2a1:	1c 05 0c 11 22 05 0c 05 0c 00 0d 1a 22 2a 01 01     ...."......."*..
	...

000002b2 <nec_rep_param>:
     2b2:	02 05 0c 11 22 05 0c 05 0c 00 00 00 00 00 01 01     ...."...........
	...

000002c3 <nec_param>:
     2c3:	02 05 0c 11 22 05 0c 05 0c 00 10 10 20 20 01 01     ....".......  ..
	...

000002d4 <sircs_param>:
     2d4:	01 0f 15 07 0b 07 0b 07 0b 0f 14 00 0f 14 00 01     ................
	...

000002e6 <__ctors_end>:
     2e6:	11 24       	eor	r1, r1
     2e8:	1f be       	out	0x3f, r1	; 63
     2ea:	cf e5       	ldi	r28, 0x5F	; 95
     2ec:	d4 e0       	ldi	r29, 0x04	; 4
     2ee:	de bf       	out	0x3e, r29	; 62
     2f0:	cd bf       	out	0x3d, r28	; 61

000002f2 <__do_copy_data>:
     2f2:	10 e0       	ldi	r17, 0x00	; 0
     2f4:	a0 e6       	ldi	r26, 0x60	; 96
     2f6:	b0 e0       	ldi	r27, 0x00	; 0
     2f8:	e4 e1       	ldi	r30, 0x14	; 20
     2fa:	f8 e3       	ldi	r31, 0x38	; 56
     2fc:	02 c0       	rjmp	.+4      	; 0x302 <__do_copy_data+0x10>
     2fe:	05 90       	lpm	r0, Z+
     300:	0d 92       	st	X+, r0
     302:	ac 36       	cpi	r26, 0x6C	; 108
     304:	b1 07       	cpc	r27, r17
     306:	d9 f7       	brne	.-10     	; 0x2fe <__do_copy_data+0xc>

00000308 <__do_clear_bss>:
     308:	21 e0       	ldi	r18, 0x01	; 1
     30a:	ac e6       	ldi	r26, 0x6C	; 108
     30c:	b0 e0       	ldi	r27, 0x00	; 0
     30e:	01 c0       	rjmp	.+2      	; 0x312 <.do_clear_bss_start>

00000310 <.do_clear_bss_loop>:
     310:	1d 92       	st	X+, r1

00000312 <.do_clear_bss_start>:
     312:	a5 35       	cpi	r26, 0x55	; 85
     314:	b2 07       	cpc	r27, r18
     316:	e1 f7       	brne	.-8      	; 0x310 <.do_clear_bss_loop>
     318:	0e 94 0d 1b 	call	0x361a	; 0x361a <main>
     31c:	0c 94 08 1c 	jmp	0x3810	; 0x3810 <_exit>

00000320 <__bad_interrupt>:
     320:	0c 94 00 00 	jmp	0	; 0x0 <__vectors>

00000324 <hcInitI2C>:
     324:	16 b8       	out	0x06, r1	; 6
     326:	0f b6       	in	r0, 0x3f	; 63
     328:	f8 94       	cli
     32a:	a8 95       	wdr
     32c:	81 b5       	in	r24, 0x21	; 33
     32e:	88 61       	ori	r24, 0x18	; 24
     330:	81 bd       	out	0x21, r24	; 33
     332:	11 bc       	out	0x21, r1	; 33
     334:	0f be       	out	0x3f, r0	; 63
     336:	8d 9a       	sbi	0x11, 5	; 17
     338:	80 91 e8 00 	lds	r24, 0x00E8	; 0x8000e8 <hcLedActive>
     33c:	80 64       	ori	r24, 0x40	; 64
     33e:	80 93 e8 00 	sts	0x00E8, r24	; 0x8000e8 <hcLedActive>
     342:	82 e0       	ldi	r24, 0x02	; 2
     344:	90 e0       	ldi	r25, 0x00	; 0
     346:	0e 94 e2 1b 	call	0x37c4	; 0x37c4 <eeprom_read_byte>
     34a:	9d ef       	ldi	r25, 0xFD	; 253
     34c:	98 0f       	add	r25, r24
     34e:	95 37       	cpi	r25, 0x75	; 117
     350:	08 f0       	brcs	.+2      	; 0x354 <hcInitI2C+0x30>
     352:	81 e6       	ldi	r24, 0x61	; 97
     354:	88 0f       	add	r24, r24
     356:	82 b9       	out	0x02, r24	; 2
     358:	86 b7       	in	r24, 0x36	; 54
     35a:	8f 7d       	andi	r24, 0xDF	; 223
     35c:	86 bf       	out	0x36, r24	; 54
     35e:	86 b7       	in	r24, 0x36	; 54
     360:	85 64       	ori	r24, 0x45	; 69
     362:	86 bf       	out	0x36, r24	; 54
     364:	78 94       	sei
     366:	10 92 2c 01 	sts	0x012C, r1	; 0x80012c <hcI2cDataChangedLength>
     36a:	10 92 e6 00 	sts	0x00E6, r1	; 0x8000e6 <hcI2cEepromPosition+0x1>
     36e:	10 92 e5 00 	sts	0x00E5, r1	; 0x8000e5 <hcI2cEepromPosition>
     372:	08 95       	ret

00000374 <hcWriteToI2c>:
     374:	e0 91 eb 00 	lds	r30, 0x00EB	; 0x8000eb <hcI2cReadBuffer>
     378:	e8 3c       	cpi	r30, 0xC8	; 200
     37a:	08 f4       	brcc	.+2      	; 0x37e <hcWriteToI2c+0xa>
     37c:	72 c0       	rjmp	.+228    	; 0x462 <__stack+0x3>
     37e:	8e 2f       	mov	r24, r30
     380:	90 e0       	ldi	r25, 0x00	; 0
     382:	fc 01       	movw	r30, r24
     384:	e8 5c       	subi	r30, 0xC8	; 200
     386:	f1 09       	sbc	r31, r1
     388:	e8 33       	cpi	r30, 0x38	; 56
     38a:	f1 05       	cpc	r31, r1
     38c:	08 f0       	brcs	.+2      	; 0x390 <hcWriteToI2c+0x1c>
     38e:	69 c0       	rjmp	.+210    	; 0x462 <__stack+0x3>
     390:	e6 5d       	subi	r30, 0xD6	; 214
     392:	ff 4f       	sbci	r31, 0xFF	; 255
     394:	0c 94 d3 1b 	jmp	0x37a6	; 0x37a6 <__tablejump2__>
     398:	80 91 2c 01 	lds	r24, 0x012C	; 0x80012c <hcI2cDataChangedLength>
     39c:	45 c0       	rjmp	.+138    	; 0x428 <__LOCK_REGION_LENGTH__+0x28>
     39e:	0e 94 60 1b 	call	0x36c0	; 0x36c0 <getChangedData>
     3a2:	08 95       	ret
     3a4:	84 e0       	ldi	r24, 0x04	; 4
     3a6:	90 e0       	ldi	r25, 0x00	; 0
     3a8:	0e 94 e2 1b 	call	0x37c4	; 0x37c4 <eeprom_read_byte>
     3ac:	80 93 0c 01 	sts	0x010C, r24	; 0x80010c <hcI2cWriteBuffer>
     3b0:	85 e0       	ldi	r24, 0x05	; 5
     3b2:	90 e0       	ldi	r25, 0x00	; 0
     3b4:	0e 94 e2 1b 	call	0x37c4	; 0x37c4 <eeprom_read_byte>
     3b8:	32 c0       	rjmp	.+100    	; 0x41e <__LOCK_REGION_LENGTH__+0x1e>
     3ba:	83 e0       	ldi	r24, 0x03	; 3
     3bc:	90 e0       	ldi	r25, 0x00	; 0
     3be:	0e 94 e2 1b 	call	0x37c4	; 0x37c4 <eeprom_read_byte>
     3c2:	32 c0       	rjmp	.+100    	; 0x428 <__LOCK_REGION_LENGTH__+0x28>
     3c4:	10 92 0c 01 	sts	0x010C, r1	; 0x80010c <hcI2cWriteBuffer>
     3c8:	87 eb       	ldi	r24, 0xB7	; 183
     3ca:	80 93 0d 01 	sts	0x010D, r24	; 0x80010d <hcI2cWriteBuffer+0x1>
     3ce:	8b e1       	ldi	r24, 0x1B	; 27
     3d0:	80 93 0e 01 	sts	0x010E, r24	; 0x80010e <hcI2cWriteBuffer+0x2>
     3d4:	10 92 0f 01 	sts	0x010F, r1	; 0x80010f <hcI2cWriteBuffer+0x3>
     3d8:	84 e0       	ldi	r24, 0x04	; 4
     3da:	08 95       	ret
     3dc:	81 e0       	ldi	r24, 0x01	; 1
     3de:	80 93 0c 01 	sts	0x010C, r24	; 0x80010c <hcI2cWriteBuffer>
     3e2:	8a ef       	ldi	r24, 0xFA	; 250
     3e4:	1c c0       	rjmp	.+56     	; 0x41e <__LOCK_REGION_LENGTH__+0x1e>
     3e6:	20 91 e5 00 	lds	r18, 0x00E5	; 0x8000e5 <hcI2cEepromPosition>
     3ea:	30 91 e6 00 	lds	r19, 0x00E6	; 0x8000e6 <hcI2cEepromPosition+0x1>
     3ee:	8a ef       	ldi	r24, 0xFA	; 250
     3f0:	91 e0       	ldi	r25, 0x01	; 1
     3f2:	82 1b       	sub	r24, r18
     3f4:	93 0b       	sbc	r25, r19
     3f6:	90 93 0c 01 	sts	0x010C, r25	; 0x80010c <hcI2cWriteBuffer>
     3fa:	8a ef       	ldi	r24, 0xFA	; 250
     3fc:	82 1b       	sub	r24, r18
     3fe:	0f c0       	rjmp	.+30     	; 0x41e <__LOCK_REGION_LENGTH__+0x1e>
     400:	80 91 e5 00 	lds	r24, 0x00E5	; 0x8000e5 <hcI2cEepromPosition>
     404:	90 91 e6 00 	lds	r25, 0x00E6	; 0x8000e6 <hcI2cEepromPosition+0x1>
     408:	08 c0       	rjmp	.+16     	; 0x41a <__LOCK_REGION_LENGTH__+0x1a>
     40a:	10 92 0c 01 	sts	0x010C, r1	; 0x80010c <hcI2cWriteBuffer>
     40e:	80 e2       	ldi	r24, 0x20	; 32
     410:	06 c0       	rjmp	.+12     	; 0x41e <__LOCK_REGION_LENGTH__+0x1e>
     412:	80 91 e9 00 	lds	r24, 0x00E9	; 0x8000e9 <hcI2cPwmSpeedValue>
     416:	90 91 ea 00 	lds	r25, 0x00EA	; 0x8000ea <hcI2cPwmSpeedValue+0x1>
     41a:	90 93 0c 01 	sts	0x010C, r25	; 0x80010c <hcI2cWriteBuffer>
     41e:	80 93 0d 01 	sts	0x010D, r24	; 0x80010d <hcI2cWriteBuffer+0x1>
     422:	82 e0       	ldi	r24, 0x02	; 2
     424:	08 95       	ret
     426:	82 e0       	ldi	r24, 0x02	; 2
     428:	80 93 0c 01 	sts	0x010C, r24	; 0x80010c <hcI2cWriteBuffer>
     42c:	13 c0       	rjmp	.+38     	; 0x454 <__LOCK_REGION_LENGTH__+0x54>
     42e:	10 92 0c 01 	sts	0x010C, r1	; 0x80010c <hcI2cWriteBuffer>
     432:	10 c0       	rjmp	.+32     	; 0x454 <__LOCK_REGION_LENGTH__+0x54>
     434:	80 91 e8 00 	lds	r24, 0x00E8	; 0x8000e8 <hcLedActive>
     438:	86 fb       	bst	r24, 6
     43a:	88 27       	eor	r24, r24
     43c:	80 f9       	bld	r24, 0
     43e:	f4 cf       	rjmp	.-24     	; 0x428 <__LOCK_REGION_LENGTH__+0x28>
     440:	80 91 e8 00 	lds	r24, 0x00E8	; 0x8000e8 <hcLedActive>
     444:	86 fb       	bst	r24, 6
     446:	22 27       	eor	r18, r18
     448:	20 f9       	bld	r18, 0
     44a:	30 e0       	ldi	r19, 0x00	; 0
     44c:	22 0f       	add	r18, r18
     44e:	33 1f       	adc	r19, r19
     450:	20 93 0c 01 	sts	0x010C, r18	; 0x80010c <hcI2cWriteBuffer>
     454:	81 e0       	ldi	r24, 0x01	; 1
     456:	08 95       	ret
     458:	81 e0       	ldi	r24, 0x01	; 1
     45a:	80 93 0c 01 	sts	0x010C, r24	; 0x80010c <hcI2cWriteBuffer>
     45e:	80 93 0d 01 	sts	0x010D, r24	; 0x80010d <hcI2cWriteBuffer+0x1>
     462:	80 e0       	ldi	r24, 0x00	; 0
     464:	08 95       	ret

00000466 <hcI2cCheckDeviceId>:
     466:	cf 93       	push	r28
     468:	c0 91 ed 00 	lds	r28, 0x00ED	; 0x8000ed <hcI2cReadBuffer+0x2>
     46c:	84 e0       	ldi	r24, 0x04	; 4
     46e:	90 e0       	ldi	r25, 0x00	; 0
     470:	0e 94 e2 1b 	call	0x37c4	; 0x37c4 <eeprom_read_byte>
     474:	c8 13       	cpse	r28, r24
     476:	0b c0       	rjmp	.+22     	; 0x48e <hcI2cCheckDeviceId+0x28>
     478:	c0 91 ee 00 	lds	r28, 0x00EE	; 0x8000ee <hcI2cReadBuffer+0x3>
     47c:	85 e0       	ldi	r24, 0x05	; 5
     47e:	90 e0       	ldi	r25, 0x00	; 0
     480:	0e 94 e2 1b 	call	0x37c4	; 0x37c4 <eeprom_read_byte>
     484:	91 e0       	ldi	r25, 0x01	; 1
     486:	c8 13       	cpse	r28, r24
     488:	90 e0       	ldi	r25, 0x00	; 0
     48a:	89 2f       	mov	r24, r25
     48c:	01 c0       	rjmp	.+2      	; 0x490 <hcI2cCheckDeviceId+0x2a>
     48e:	80 e0       	ldi	r24, 0x00	; 0
     490:	cf 91       	pop	r28
     492:	08 95       	ret

00000494 <hcReadFromI2c>:
     494:	cf 93       	push	r28
     496:	df 93       	push	r29
     498:	80 91 e7 00 	lds	r24, 0x00E7	; 0x8000e7 <hcI2cReadBufferPosition>
     49c:	88 23       	and	r24, r24
     49e:	09 f4       	brne	.+2      	; 0x4a2 <hcReadFromI2c+0xe>
     4a0:	8f c0       	rjmp	.+286    	; 0x5c0 <hcReadFromI2c+0x12c>
     4a2:	20 91 ec 00 	lds	r18, 0x00EC	; 0x8000ec <hcI2cReadBuffer+0x1>
     4a6:	30 e0       	ldi	r19, 0x00	; 0
     4a8:	90 e0       	ldi	r25, 0x00	; 0
     4aa:	02 97       	sbiw	r24, 0x02	; 2
     4ac:	28 17       	cp	r18, r24
     4ae:	39 07       	cpc	r19, r25
     4b0:	09 f0       	breq	.+2      	; 0x4b4 <hcReadFromI2c+0x20>
     4b2:	86 c0       	rjmp	.+268    	; 0x5c0 <hcReadFromI2c+0x12c>
     4b4:	80 91 eb 00 	lds	r24, 0x00EB	; 0x8000eb <hcI2cReadBuffer>
     4b8:	88 3c       	cpi	r24, 0xC8	; 200
     4ba:	08 f4       	brcc	.+2      	; 0x4be <hcReadFromI2c+0x2a>
     4bc:	7d c0       	rjmp	.+250    	; 0x5b8 <hcReadFromI2c+0x124>
     4be:	81 3d       	cpi	r24, 0xD1	; 209
     4c0:	09 f4       	brne	.+2      	; 0x4c4 <hcReadFromI2c+0x30>
     4c2:	4d c0       	rjmp	.+154    	; 0x55e <hcReadFromI2c+0xca>
     4c4:	40 f4       	brcc	.+16     	; 0x4d6 <hcReadFromI2c+0x42>
     4c6:	89 3c       	cpi	r24, 0xC9	; 201
     4c8:	a9 f1       	breq	.+106    	; 0x534 <hcReadFromI2c+0xa0>
     4ca:	8a 3c       	cpi	r24, 0xCA	; 202
     4cc:	d9 f1       	breq	.+118    	; 0x544 <hcReadFromI2c+0xb0>
     4ce:	88 3c       	cpi	r24, 0xC8	; 200
     4d0:	09 f0       	breq	.+2      	; 0x4d4 <hcReadFromI2c+0x40>
     4d2:	76 c0       	rjmp	.+236    	; 0x5c0 <hcReadFromI2c+0x12c>
     4d4:	1f c0       	rjmp	.+62     	; 0x514 <hcReadFromI2c+0x80>
     4d6:	87 3d       	cpi	r24, 0xD7	; 215
     4d8:	09 f4       	brne	.+2      	; 0x4dc <hcReadFromI2c+0x48>
     4da:	4e c0       	rjmp	.+156    	; 0x578 <hcReadFromI2c+0xe4>
     4dc:	78 f4       	brcc	.+30     	; 0x4fc <hcReadFromI2c+0x68>
     4de:	86 3d       	cpi	r24, 0xD6	; 214
     4e0:	09 f0       	breq	.+2      	; 0x4e4 <hcReadFromI2c+0x50>
     4e2:	6e c0       	rjmp	.+220    	; 0x5c0 <hcReadFromI2c+0x12c>
     4e4:	80 91 ed 00 	lds	r24, 0x00ED	; 0x8000ed <hcI2cReadBuffer+0x2>
     4e8:	90 91 ee 00 	lds	r25, 0x00EE	; 0x8000ee <hcI2cReadBuffer+0x3>
     4ec:	98 27       	eor	r25, r24
     4ee:	89 27       	eor	r24, r25
     4f0:	98 27       	eor	r25, r24
     4f2:	90 93 e6 00 	sts	0x00E6, r25	; 0x8000e6 <hcI2cEepromPosition+0x1>
     4f6:	80 93 e5 00 	sts	0x00E5, r24	; 0x8000e5 <hcI2cEepromPosition>
     4fa:	62 c0       	rjmp	.+196    	; 0x5c0 <hcReadFromI2c+0x12c>
     4fc:	83 3e       	cpi	r24, 0xE3	; 227
     4fe:	09 f4       	brne	.+2      	; 0x502 <hcReadFromI2c+0x6e>
     500:	4f c0       	rjmp	.+158    	; 0x5a0 <hcReadFromI2c+0x10c>
     502:	85 3e       	cpi	r24, 0xE5	; 229
     504:	09 f0       	breq	.+2      	; 0x508 <hcReadFromI2c+0x74>
     506:	5c c0       	rjmp	.+184    	; 0x5c0 <hcReadFromI2c+0x12c>
     508:	90 91 ed 00 	lds	r25, 0x00ED	; 0x8000ed <hcI2cReadBuffer+0x2>
     50c:	96 95       	lsr	r25
     50e:	80 91 e8 00 	lds	r24, 0x00E8	; 0x8000e8 <hcLedActive>
     512:	4a c0       	rjmp	.+148    	; 0x5a8 <hcReadFromI2c+0x114>
     514:	0e 94 33 02 	call	0x466	; 0x466 <hcI2cCheckDeviceId>
     518:	88 23       	and	r24, r24
     51a:	09 f4       	brne	.+2      	; 0x51e <hcReadFromI2c+0x8a>
     51c:	51 c0       	rjmp	.+162    	; 0x5c0 <hcReadFromI2c+0x12c>
     51e:	60 91 ef 00 	lds	r22, 0x00EF	; 0x8000ef <hcI2cReadBuffer+0x4>
     522:	84 e0       	ldi	r24, 0x04	; 4
     524:	90 e0       	ldi	r25, 0x00	; 0
     526:	0e 94 fb 1b 	call	0x37f6	; 0x37f6 <eeprom_write_byte>
     52a:	60 91 f0 00 	lds	r22, 0x00F0	; 0x8000f0 <hcI2cReadBuffer+0x5>
     52e:	85 e0       	ldi	r24, 0x05	; 5
     530:	90 e0       	ldi	r25, 0x00	; 0
     532:	04 c0       	rjmp	.+8      	; 0x53c <hcReadFromI2c+0xa8>
     534:	60 91 ed 00 	lds	r22, 0x00ED	; 0x8000ed <hcI2cReadBuffer+0x2>
     538:	83 e0       	ldi	r24, 0x03	; 3
     53a:	90 e0       	ldi	r25, 0x00	; 0
     53c:	df 91       	pop	r29
     53e:	cf 91       	pop	r28
     540:	0c 94 fb 1b 	jmp	0x37f6	; 0x37f6 <eeprom_write_byte>
     544:	0e 94 33 02 	call	0x466	; 0x466 <hcI2cCheckDeviceId>
     548:	88 23       	and	r24, r24
     54a:	09 f4       	brne	.+2      	; 0x54e <hcReadFromI2c+0xba>
     54c:	39 c0       	rjmp	.+114    	; 0x5c0 <hcReadFromI2c+0x12c>
     54e:	60 91 ef 00 	lds	r22, 0x00EF	; 0x8000ef <hcI2cReadBuffer+0x4>
     552:	86 2f       	mov	r24, r22
     554:	88 0f       	add	r24, r24
     556:	82 b9       	out	0x02, r24	; 2
     558:	82 e0       	ldi	r24, 0x02	; 2
     55a:	90 e0       	ldi	r25, 0x00	; 0
     55c:	ef cf       	rjmp	.-34     	; 0x53c <hcReadFromI2c+0xa8>
     55e:	0e 94 33 02 	call	0x466	; 0x466 <hcI2cCheckDeviceId>
     562:	88 23       	and	r24, r24
     564:	69 f1       	breq	.+90     	; 0x5c0 <hcReadFromI2c+0x12c>
     566:	98 e0       	ldi	r25, 0x08	; 8
     568:	88 e1       	ldi	r24, 0x18	; 24
     56a:	0f b6       	in	r0, 0x3f	; 63
     56c:	f8 94       	cli
     56e:	a8 95       	wdr
     570:	81 bd       	out	0x21, r24	; 33
     572:	0f be       	out	0x3f, r0	; 63
     574:	91 bd       	out	0x21, r25	; 33
     576:	ff cf       	rjmp	.-2      	; 0x576 <hcReadFromI2c+0xe2>
     578:	0e 94 33 02 	call	0x466	; 0x466 <hcI2cCheckDeviceId>
     57c:	88 23       	and	r24, r24
     57e:	01 f1       	breq	.+64     	; 0x5c0 <hcReadFromI2c+0x12c>
     580:	c6 e0       	ldi	r28, 0x06	; 6
     582:	d0 e0       	ldi	r29, 0x00	; 0
     584:	6f ef       	ldi	r22, 0xFF	; 255
     586:	ce 01       	movw	r24, r28
     588:	0e 94 ea 1b 	call	0x37d4	; 0x37d4 <eeprom_update_byte>
     58c:	21 96       	adiw	r28, 0x01	; 1
     58e:	82 e0       	ldi	r24, 0x02	; 2
     590:	c0 30       	cpi	r28, 0x00	; 0
     592:	d8 07       	cpc	r29, r24
     594:	b9 f7       	brne	.-18     	; 0x584 <hcReadFromI2c+0xf0>
     596:	10 92 e6 00 	sts	0x00E6, r1	; 0x8000e6 <hcI2cEepromPosition+0x1>
     59a:	10 92 e5 00 	sts	0x00E5, r1	; 0x8000e5 <hcI2cEepromPosition>
     59e:	10 c0       	rjmp	.+32     	; 0x5c0 <hcReadFromI2c+0x12c>
     5a0:	80 91 e8 00 	lds	r24, 0x00E8	; 0x8000e8 <hcLedActive>
     5a4:	90 91 ed 00 	lds	r25, 0x00ED	; 0x8000ed <hcI2cReadBuffer+0x2>
     5a8:	90 fb       	bst	r25, 0
     5aa:	86 f9       	bld	r24, 6
     5ac:	80 93 e8 00 	sts	0x00E8, r24	; 0x8000e8 <hcLedActive>
     5b0:	86 fd       	sbrc	r24, 6
     5b2:	06 c0       	rjmp	.+12     	; 0x5c0 <hcReadFromI2c+0x12c>
     5b4:	95 98       	cbi	0x12, 5	; 18
     5b6:	04 c0       	rjmp	.+8      	; 0x5c0 <hcReadFromI2c+0x12c>
     5b8:	df 91       	pop	r29
     5ba:	cf 91       	pop	r28
     5bc:	0c 94 72 1b 	jmp	0x36e4	; 0x36e4 <setData>
     5c0:	df 91       	pop	r29
     5c2:	cf 91       	pop	r28
     5c4:	08 95       	ret

000005c6 <__vector_17>:
     5c6:	1f 92       	push	r1
     5c8:	0f 92       	push	r0
     5ca:	0f b6       	in	r0, 0x3f	; 63
     5cc:	0f 92       	push	r0
     5ce:	11 24       	eor	r1, r1
     5d0:	2f 93       	push	r18
     5d2:	3f 93       	push	r19
     5d4:	4f 93       	push	r20
     5d6:	5f 93       	push	r21
     5d8:	6f 93       	push	r22
     5da:	7f 93       	push	r23
     5dc:	8f 93       	push	r24
     5de:	9f 93       	push	r25
     5e0:	af 93       	push	r26
     5e2:	bf 93       	push	r27
     5e4:	ef 93       	push	r30
     5e6:	ff 93       	push	r31
     5e8:	81 b1       	in	r24, 0x01	; 1
     5ea:	88 7f       	andi	r24, 0xF8	; 248
     5ec:	80 3a       	cpi	r24, 0xA0	; 160
     5ee:	e9 f1       	breq	.+122    	; 0x66a <__vector_17+0xa4>
     5f0:	28 f4       	brcc	.+10     	; 0x5fc <__vector_17+0x36>
     5f2:	80 36       	cpi	r24, 0x60	; 96
     5f4:	41 f0       	breq	.+16     	; 0x606 <__vector_17+0x40>
     5f6:	80 38       	cpi	r24, 0x80	; 128
     5f8:	59 f0       	breq	.+22     	; 0x610 <__vector_17+0x4a>
     5fa:	3c c0       	rjmp	.+120    	; 0x674 <__vector_17+0xae>
     5fc:	88 3a       	cpi	r24, 0xA8	; 168
     5fe:	b1 f0       	breq	.+44     	; 0x62c <__vector_17+0x66>
     600:	88 3b       	cpi	r24, 0xB8	; 184
     602:	d1 f0       	breq	.+52     	; 0x638 <__vector_17+0x72>
     604:	37 c0       	rjmp	.+110    	; 0x674 <__vector_17+0xae>
     606:	85 ec       	ldi	r24, 0xC5	; 197
     608:	86 bf       	out	0x36, r24	; 54
     60a:	10 92 e7 00 	sts	0x00E7, r1	; 0x8000e7 <hcI2cReadBufferPosition>
     60e:	34 c0       	rjmp	.+104    	; 0x678 <__vector_17+0xb2>
     610:	e0 91 e7 00 	lds	r30, 0x00E7	; 0x8000e7 <hcI2cReadBufferPosition>
     614:	81 e0       	ldi	r24, 0x01	; 1
     616:	8e 0f       	add	r24, r30
     618:	80 93 e7 00 	sts	0x00E7, r24	; 0x8000e7 <hcI2cReadBufferPosition>
     61c:	93 b1       	in	r25, 0x03	; 3
     61e:	f0 e0       	ldi	r31, 0x00	; 0
     620:	e5 51       	subi	r30, 0x15	; 21
     622:	ff 4f       	sbci	r31, 0xFF	; 255
     624:	90 83       	st	Z, r25
     626:	80 32       	cpi	r24, 0x20	; 32
     628:	f0 f4       	brcc	.+60     	; 0x666 <__vector_17+0xa0>
     62a:	24 c0       	rjmp	.+72     	; 0x674 <__vector_17+0xae>
     62c:	10 92 0b 01 	sts	0x010B, r1	; 0x80010b <hcI2cWriteBufferPosition>
     630:	0e 94 ba 01 	call	0x374	; 0x374 <hcWriteToI2c>
     634:	80 93 e1 00 	sts	0x00E1, r24	; 0x8000e1 <hcI2cSendDataLength>
     638:	80 91 e1 00 	lds	r24, 0x00E1	; 0x8000e1 <hcI2cSendDataLength>
     63c:	81 11       	cpse	r24, r1
     63e:	02 c0       	rjmp	.+4      	; 0x644 <__vector_17+0x7e>
     640:	13 b8       	out	0x03, r1	; 3
     642:	11 c0       	rjmp	.+34     	; 0x666 <__vector_17+0xa0>
     644:	e0 91 0b 01 	lds	r30, 0x010B	; 0x80010b <hcI2cWriteBufferPosition>
     648:	81 e0       	ldi	r24, 0x01	; 1
     64a:	8e 0f       	add	r24, r30
     64c:	80 93 0b 01 	sts	0x010B, r24	; 0x80010b <hcI2cWriteBufferPosition>
     650:	f0 e0       	ldi	r31, 0x00	; 0
     652:	e4 5f       	subi	r30, 0xF4	; 244
     654:	fe 4f       	sbci	r31, 0xFE	; 254
     656:	80 81       	ld	r24, Z
     658:	83 b9       	out	0x03, r24	; 3
     65a:	90 91 0b 01 	lds	r25, 0x010B	; 0x80010b <hcI2cWriteBufferPosition>
     65e:	80 91 e1 00 	lds	r24, 0x00E1	; 0x8000e1 <hcI2cSendDataLength>
     662:	98 17       	cp	r25, r24
     664:	38 f0       	brcs	.+14     	; 0x674 <__vector_17+0xae>
     666:	85 e8       	ldi	r24, 0x85	; 133
     668:	06 c0       	rjmp	.+12     	; 0x676 <__vector_17+0xb0>
     66a:	85 ec       	ldi	r24, 0xC5	; 197
     66c:	86 bf       	out	0x36, r24	; 54
     66e:	0e 94 4a 02 	call	0x494	; 0x494 <hcReadFromI2c>
     672:	02 c0       	rjmp	.+4      	; 0x678 <__vector_17+0xb2>
     674:	85 ec       	ldi	r24, 0xC5	; 197
     676:	86 bf       	out	0x36, r24	; 54
     678:	ff 91       	pop	r31
     67a:	ef 91       	pop	r30
     67c:	bf 91       	pop	r27
     67e:	af 91       	pop	r26
     680:	9f 91       	pop	r25
     682:	8f 91       	pop	r24
     684:	7f 91       	pop	r23
     686:	6f 91       	pop	r22
     688:	5f 91       	pop	r21
     68a:	4f 91       	pop	r20
     68c:	3f 91       	pop	r19
     68e:	2f 91       	pop	r18
     690:	0f 90       	pop	r0
     692:	0f be       	out	0x3f, r0	; 63
     694:	0f 90       	pop	r0
     696:	1f 90       	pop	r1
     698:	18 95       	reti

0000069a <irmp_store_bit>:
     69a:	90 91 ac 00 	lds	r25, 0x00AC	; 0x8000ac <irmp_bit>
     69e:	40 91 9b 00 	lds	r20, 0x009B	; 0x80009b <irmp_param>
     6a2:	91 11       	cpse	r25, r1
     6a4:	05 c0       	rjmp	.+10     	; 0x6b0 <irmp_store_bit+0x16>
     6a6:	4f 30       	cpi	r20, 0x0F	; 15
     6a8:	19 f4       	brne	.+6      	; 0x6b0 <irmp_store_bit+0x16>
     6aa:	80 93 ad 00 	sts	0x00AD, r24	; 0x8000ad <first_bit>
     6ae:	4f c1       	rjmp	.+670    	; 0x94e <irmp_store_bit+0x2b4>
     6b0:	50 91 a4 00 	lds	r21, 0x00A4	; 0x8000a4 <irmp_param+0x9>
     6b4:	95 17       	cp	r25, r21
     6b6:	f8 f0       	brcs	.+62     	; 0x6f6 <irmp_store_bit+0x5c>
     6b8:	20 91 a5 00 	lds	r18, 0x00A5	; 0x8000a5 <irmp_param+0xa>
     6bc:	92 17       	cp	r25, r18
     6be:	d8 f4       	brcc	.+54     	; 0x6f6 <irmp_store_bit+0x5c>
     6c0:	e0 91 aa 00 	lds	r30, 0x00AA	; 0x8000aa <irmp_param+0xf>
     6c4:	28 2f       	mov	r18, r24
     6c6:	30 e0       	ldi	r19, 0x00	; 0
     6c8:	60 91 90 00 	lds	r22, 0x0090	; 0x800090 <irmp_tmp_address>
     6cc:	70 91 91 00 	lds	r23, 0x0091	; 0x800091 <irmp_tmp_address+0x1>
     6d0:	ee 23       	and	r30, r30
     6d2:	41 f0       	breq	.+16     	; 0x6e4 <irmp_store_bit+0x4a>
     6d4:	e9 2f       	mov	r30, r25
     6d6:	e5 1b       	sub	r30, r21
     6d8:	02 c0       	rjmp	.+4      	; 0x6de <irmp_store_bit+0x44>
     6da:	22 0f       	add	r18, r18
     6dc:	33 1f       	adc	r19, r19
     6de:	ea 95       	dec	r30
     6e0:	e2 f7       	brpl	.-8      	; 0x6da <irmp_store_bit+0x40>
     6e2:	02 c0       	rjmp	.+4      	; 0x6e8 <irmp_store_bit+0x4e>
     6e4:	66 0f       	add	r22, r22
     6e6:	77 1f       	adc	r23, r23
     6e8:	26 2b       	or	r18, r22
     6ea:	37 2b       	or	r19, r23
     6ec:	30 93 91 00 	sts	0x0091, r19	; 0x800091 <irmp_tmp_address+0x1>
     6f0:	20 93 90 00 	sts	0x0090, r18	; 0x800090 <irmp_tmp_address>
     6f4:	34 c0       	rjmp	.+104    	; 0x75e <irmp_store_bit+0xc4>
     6f6:	50 91 a6 00 	lds	r21, 0x00A6	; 0x8000a6 <irmp_param+0xb>
     6fa:	95 17       	cp	r25, r21
     6fc:	80 f1       	brcs	.+96     	; 0x75e <irmp_store_bit+0xc4>
     6fe:	20 91 a7 00 	lds	r18, 0x00A7	; 0x8000a7 <irmp_param+0xc>
     702:	92 17       	cp	r25, r18
     704:	60 f5       	brcc	.+88     	; 0x75e <irmp_store_bit+0xc4>
     706:	60 91 aa 00 	lds	r22, 0x00AA	; 0x8000aa <irmp_param+0xf>
     70a:	28 2f       	mov	r18, r24
     70c:	30 e0       	ldi	r19, 0x00	; 0
     70e:	66 23       	and	r22, r22
     710:	d1 f0       	breq	.+52     	; 0x746 <irmp_store_bit+0xac>
     712:	69 2f       	mov	r22, r25
     714:	70 e0       	ldi	r23, 0x00	; 0
     716:	49 32       	cpi	r20, 0x29	; 41
     718:	51 f4       	brne	.+20     	; 0x72e <irmp_store_bit+0x94>
     71a:	90 32       	cpi	r25, 0x20	; 32
     71c:	40 f0       	brcs	.+16     	; 0x72e <irmp_store_bit+0x94>
     71e:	60 52       	subi	r22, 0x20	; 32
     720:	71 09       	sbc	r23, r1
     722:	02 c0       	rjmp	.+4      	; 0x728 <irmp_store_bit+0x8e>
     724:	22 0f       	add	r18, r18
     726:	33 1f       	adc	r19, r19
     728:	6a 95       	dec	r22
     72a:	e2 f7       	brpl	.-8      	; 0x724 <irmp_store_bit+0x8a>
     72c:	78 c0       	rjmp	.+240    	; 0x81e <irmp_store_bit+0x184>
     72e:	65 1b       	sub	r22, r21
     730:	71 09       	sbc	r23, r1
     732:	02 c0       	rjmp	.+4      	; 0x738 <irmp_store_bit+0x9e>
     734:	22 0f       	add	r18, r18
     736:	33 1f       	adc	r19, r19
     738:	6a 95       	dec	r22
     73a:	e2 f7       	brpl	.-8      	; 0x734 <irmp_store_bit+0x9a>
     73c:	60 91 8e 00 	lds	r22, 0x008E	; 0x80008e <irmp_tmp_command>
     740:	70 91 8f 00 	lds	r23, 0x008F	; 0x80008f <irmp_tmp_command+0x1>
     744:	06 c0       	rjmp	.+12     	; 0x752 <irmp_store_bit+0xb8>
     746:	60 91 8e 00 	lds	r22, 0x008E	; 0x80008e <irmp_tmp_command>
     74a:	70 91 8f 00 	lds	r23, 0x008F	; 0x80008f <irmp_tmp_command+0x1>
     74e:	66 0f       	add	r22, r22
     750:	77 1f       	adc	r23, r23
     752:	26 2b       	or	r18, r22
     754:	37 2b       	or	r19, r23
     756:	30 93 8f 00 	sts	0x008F, r19	; 0x80008f <irmp_tmp_command+0x1>
     75a:	20 93 8e 00 	sts	0x008E, r18	; 0x80008e <irmp_tmp_command>
     75e:	42 30       	cpi	r20, 0x02	; 2
     760:	31 f0       	breq	.+12     	; 0x76e <irmp_store_bit+0xd4>
     762:	4c 31       	cpi	r20, 0x1C	; 28
     764:	21 f0       	breq	.+8      	; 0x76e <irmp_store_bit+0xd4>
     766:	4c 33       	cpi	r20, 0x3C	; 60
     768:	09 f0       	breq	.+2      	; 0x76c <irmp_store_bit+0xd2>
     76a:	49 c0       	rjmp	.+146    	; 0x7fe <irmp_store_bit+0x164>
     76c:	1d c0       	rjmp	.+58     	; 0x7a8 <irmp_store_bit+0x10e>
     76e:	98 30       	cpi	r25, 0x08	; 8
     770:	60 f4       	brcc	.+24     	; 0x78a <irmp_store_bit+0xf0>
     772:	20 91 8a 00 	lds	r18, 0x008A	; 0x80008a <irmp_lgair_address>
     776:	30 91 8b 00 	lds	r19, 0x008B	; 0x80008b <irmp_lgair_address+0x1>
     77a:	22 0f       	add	r18, r18
     77c:	33 1f       	adc	r19, r19
     77e:	28 2b       	or	r18, r24
     780:	30 93 8b 00 	sts	0x008B, r19	; 0x80008b <irmp_lgair_address+0x1>
     784:	20 93 8a 00 	sts	0x008A, r18	; 0x80008a <irmp_lgair_address>
     788:	0d c0       	rjmp	.+26     	; 0x7a4 <irmp_store_bit+0x10a>
     78a:	98 31       	cpi	r25, 0x18	; 24
     78c:	58 f4       	brcc	.+22     	; 0x7a4 <irmp_store_bit+0x10a>
     78e:	20 91 88 00 	lds	r18, 0x0088	; 0x800088 <irmp_lgair_command>
     792:	30 91 89 00 	lds	r19, 0x0089	; 0x800089 <irmp_lgair_command+0x1>
     796:	22 0f       	add	r18, r18
     798:	33 1f       	adc	r19, r19
     79a:	28 2b       	or	r18, r24
     79c:	30 93 89 00 	sts	0x0089, r19	; 0x800089 <irmp_lgair_command+0x1>
     7a0:	20 93 88 00 	sts	0x0088, r18	; 0x800088 <irmp_lgair_command>
     7a4:	42 30       	cpi	r20, 0x02	; 2
     7a6:	89 f4       	brne	.+34     	; 0x7ca <irmp_store_bit+0x130>
     7a8:	28 2f       	mov	r18, r24
     7aa:	30 e0       	ldi	r19, 0x00	; 0
     7ac:	60 91 86 00 	lds	r22, 0x0086	; 0x800086 <irmp_melinera_command>
     7b0:	70 91 87 00 	lds	r23, 0x0087	; 0x800087 <irmp_melinera_command+0x1>
     7b4:	66 0f       	add	r22, r22
     7b6:	77 1f       	adc	r23, r23
     7b8:	62 2b       	or	r22, r18
     7ba:	73 2b       	or	r23, r19
     7bc:	70 93 87 00 	sts	0x0087, r23	; 0x800087 <irmp_melinera_command+0x1>
     7c0:	60 93 86 00 	sts	0x0086, r22	; 0x800086 <irmp_melinera_command>
     7c4:	4c 31       	cpi	r20, 0x1C	; 28
     7c6:	d9 f4       	brne	.+54     	; 0x7fe <irmp_store_bit+0x164>
     7c8:	03 c0       	rjmp	.+6      	; 0x7d0 <irmp_store_bit+0x136>
     7ca:	4c 31       	cpi	r20, 0x1C	; 28
     7cc:	69 f3       	breq	.-38     	; 0x7a8 <irmp_store_bit+0x10e>
     7ce:	cb cf       	rjmp	.-106    	; 0x766 <irmp_store_bit+0xcc>
     7d0:	83 ef       	ldi	r24, 0xF3	; 243
     7d2:	89 0f       	add	r24, r25
     7d4:	8d 30       	cpi	r24, 0x0D	; 13
     7d6:	08 f0       	brcs	.+2      	; 0x7da <irmp_store_bit+0x140>
     7d8:	ba c0       	rjmp	.+372    	; 0x94e <irmp_store_bit+0x2b4>
     7da:	83 ef       	ldi	r24, 0xF3	; 243
     7dc:	89 0f       	add	r24, r25
     7de:	02 c0       	rjmp	.+4      	; 0x7e4 <irmp_store_bit+0x14a>
     7e0:	22 0f       	add	r18, r18
     7e2:	33 1f       	adc	r19, r19
     7e4:	8a 95       	dec	r24
     7e6:	e2 f7       	brpl	.-8      	; 0x7e0 <irmp_store_bit+0x146>
     7e8:	40 91 8c 00 	lds	r20, 0x008C	; 0x80008c <irmp_tmp_address2>
     7ec:	50 91 8d 00 	lds	r21, 0x008D	; 0x80008d <irmp_tmp_address2+0x1>
     7f0:	24 2b       	or	r18, r20
     7f2:	35 2b       	or	r19, r21
     7f4:	30 93 8d 00 	sts	0x008D, r19	; 0x80008d <irmp_tmp_address2+0x1>
     7f8:	20 93 8c 00 	sts	0x008C, r18	; 0x80008c <irmp_tmp_address2>
     7fc:	a8 c0       	rjmp	.+336    	; 0x94e <irmp_store_bit+0x2b4>
     7fe:	43 30       	cpi	r20, 0x03	; 3
     800:	c9 f4       	brne	.+50     	; 0x834 <irmp_store_bit+0x19a>
     802:	2f ee       	ldi	r18, 0xEF	; 239
     804:	29 0f       	add	r18, r25
     806:	24 30       	cpi	r18, 0x04	; 4
     808:	08 f0       	brcs	.+2      	; 0x80c <irmp_store_bit+0x172>
     80a:	a1 c0       	rjmp	.+322    	; 0x94e <irmp_store_bit+0x2b4>
     80c:	28 2f       	mov	r18, r24
     80e:	30 e0       	ldi	r19, 0x00	; 0
     810:	8f ee       	ldi	r24, 0xEF	; 239
     812:	89 0f       	add	r24, r25
     814:	02 c0       	rjmp	.+4      	; 0x81a <irmp_store_bit+0x180>
     816:	22 0f       	add	r18, r18
     818:	33 1f       	adc	r19, r19
     81a:	8a 95       	dec	r24
     81c:	e2 f7       	brpl	.-8      	; 0x816 <irmp_store_bit+0x17c>
     81e:	40 91 84 00 	lds	r20, 0x0084	; 0x800084 <irmp_tmp_id>
     822:	50 91 85 00 	lds	r21, 0x0085	; 0x800085 <irmp_tmp_id+0x1>
     826:	24 2b       	or	r18, r20
     828:	35 2b       	or	r19, r21
     82a:	30 93 85 00 	sts	0x0085, r19	; 0x800085 <irmp_tmp_id+0x1>
     82e:	20 93 84 00 	sts	0x0084, r18	; 0x800084 <irmp_tmp_id>
     832:	8d c0       	rjmp	.+282    	; 0x94e <irmp_store_bit+0x2b4>
     834:	45 30       	cpi	r20, 0x05	; 5
     836:	09 f0       	breq	.+2      	; 0x83a <irmp_store_bit+0x1a0>
     838:	45 c0       	rjmp	.+138    	; 0x8c4 <irmp_store_bit+0x22a>
     83a:	2c ee       	ldi	r18, 0xEC	; 236
     83c:	29 0f       	add	r18, r25
     83e:	24 30       	cpi	r18, 0x04	; 4
     840:	a0 f4       	brcc	.+40     	; 0x86a <irmp_store_bit+0x1d0>
     842:	28 2f       	mov	r18, r24
     844:	30 e0       	ldi	r19, 0x00	; 0
     846:	48 ef       	ldi	r20, 0xF8	; 248
     848:	49 0f       	add	r20, r25
     84a:	02 c0       	rjmp	.+4      	; 0x850 <irmp_store_bit+0x1b6>
     84c:	22 0f       	add	r18, r18
     84e:	33 1f       	adc	r19, r19
     850:	4a 95       	dec	r20
     852:	e2 f7       	brpl	.-8      	; 0x84c <irmp_store_bit+0x1b2>
     854:	40 91 8e 00 	lds	r20, 0x008E	; 0x80008e <irmp_tmp_command>
     858:	50 91 8f 00 	lds	r21, 0x008F	; 0x80008f <irmp_tmp_command+0x1>
     85c:	24 2b       	or	r18, r20
     85e:	35 2b       	or	r19, r21
     860:	30 93 8f 00 	sts	0x008F, r19	; 0x80008f <irmp_tmp_command+0x1>
     864:	20 93 8e 00 	sts	0x008E, r18	; 0x80008e <irmp_tmp_command>
     868:	14 c0       	rjmp	.+40     	; 0x892 <irmp_store_bit+0x1f8>
     86a:	28 ee       	ldi	r18, 0xE8	; 232
     86c:	29 0f       	add	r18, r25
     86e:	24 30       	cpi	r18, 0x04	; 4
     870:	68 f4       	brcc	.+26     	; 0x88c <irmp_store_bit+0x1f2>
     872:	28 2f       	mov	r18, r24
     874:	4c ee       	ldi	r20, 0xEC	; 236
     876:	49 0f       	add	r20, r25
     878:	01 c0       	rjmp	.+2      	; 0x87c <irmp_store_bit+0x1e2>
     87a:	22 0f       	add	r18, r18
     87c:	4a 95       	dec	r20
     87e:	ea f7       	brpl	.-6      	; 0x87a <irmp_store_bit+0x1e0>
     880:	30 91 7d 00 	lds	r19, 0x007D	; 0x80007d <genre2>
     884:	23 2b       	or	r18, r19
     886:	20 93 7d 00 	sts	0x007D, r18	; 0x80007d <genre2>
     88a:	03 c0       	rjmp	.+6      	; 0x892 <irmp_store_bit+0x1f8>
     88c:	90 33       	cpi	r25, 0x30	; 48
     88e:	08 f0       	brcs	.+2      	; 0x892 <irmp_store_bit+0x1f8>
     890:	5e c0       	rjmp	.+188    	; 0x94e <irmp_store_bit+0x2b4>
     892:	e9 2f       	mov	r30, r25
     894:	e6 95       	lsr	r30
     896:	e6 95       	lsr	r30
     898:	e6 95       	lsr	r30
     89a:	49 2f       	mov	r20, r25
     89c:	47 70       	andi	r20, 0x07	; 7
     89e:	f0 e0       	ldi	r31, 0x00	; 0
     8a0:	e2 58       	subi	r30, 0x82	; 130
     8a2:	ff 4f       	sbci	r31, 0xFF	; 255
     8a4:	21 e0       	ldi	r18, 0x01	; 1
     8a6:	30 e0       	ldi	r19, 0x00	; 0
     8a8:	01 c0       	rjmp	.+2      	; 0x8ac <irmp_store_bit+0x212>
     8aa:	22 0f       	add	r18, r18
     8ac:	4a 95       	dec	r20
     8ae:	ea f7       	brpl	.-6      	; 0x8aa <irmp_store_bit+0x210>
     8b0:	88 23       	and	r24, r24
     8b2:	19 f0       	breq	.+6      	; 0x8ba <irmp_store_bit+0x220>
     8b4:	80 81       	ld	r24, Z
     8b6:	28 2b       	or	r18, r24
     8b8:	03 c0       	rjmp	.+6      	; 0x8c0 <irmp_store_bit+0x226>
     8ba:	20 95       	com	r18
     8bc:	80 81       	ld	r24, Z
     8be:	28 23       	and	r18, r24
     8c0:	20 83       	st	Z, r18
     8c2:	45 c0       	rjmp	.+138    	; 0x94e <irmp_store_bit+0x2b4>
     8c4:	41 33       	cpi	r20, 0x31	; 49
     8c6:	09 f0       	breq	.+2      	; 0x8ca <irmp_store_bit+0x230>
     8c8:	42 c0       	rjmp	.+132    	; 0x94e <irmp_store_bit+0x2b4>
     8ca:	98 34       	cpi	r25, 0x48	; 72
     8cc:	99 f5       	brne	.+102    	; 0x934 <irmp_store_bit+0x29a>
     8ce:	21 e0       	ldi	r18, 0x01	; 1
     8d0:	20 93 7c 00 	sts	0x007C, r18	; 0x80007c <mitsu_parity>
     8d4:	20 91 90 00 	lds	r18, 0x0090	; 0x800090 <irmp_tmp_address>
     8d8:	30 91 91 00 	lds	r19, 0x0091	; 0x800091 <irmp_tmp_address+0x1>
     8dc:	43 2f       	mov	r20, r19
     8de:	40 95       	com	r20
     8e0:	50 e0       	ldi	r21, 0x00	; 0
     8e2:	b9 01       	movw	r22, r18
     8e4:	77 27       	eor	r23, r23
     8e6:	46 17       	cp	r20, r22
     8e8:	57 07       	cpc	r21, r23
     8ea:	29 f4       	brne	.+10     	; 0x8f6 <irmp_store_bit+0x25c>
     8ec:	10 92 90 00 	sts	0x0090, r1	; 0x800090 <irmp_tmp_address>
     8f0:	20 93 91 00 	sts	0x0091, r18	; 0x800091 <irmp_tmp_address+0x1>
     8f4:	02 c0       	rjmp	.+4      	; 0x8fa <irmp_store_bit+0x260>
     8f6:	10 92 7c 00 	sts	0x007C, r1	; 0x80007c <mitsu_parity>
     8fa:	40 91 8e 00 	lds	r20, 0x008E	; 0x80008e <irmp_tmp_command>
     8fe:	50 91 8f 00 	lds	r21, 0x008F	; 0x80008f <irmp_tmp_command+0x1>
     902:	25 2f       	mov	r18, r21
     904:	20 95       	com	r18
     906:	30 e0       	ldi	r19, 0x00	; 0
     908:	55 27       	eor	r21, r21
     90a:	24 17       	cp	r18, r20
     90c:	35 07       	cpc	r19, r21
     90e:	59 f4       	brne	.+22     	; 0x926 <irmp_store_bit+0x28c>
     910:	40 91 90 00 	lds	r20, 0x0090	; 0x800090 <irmp_tmp_address>
     914:	50 91 91 00 	lds	r21, 0x0091	; 0x800091 <irmp_tmp_address+0x1>
     918:	24 2b       	or	r18, r20
     91a:	35 2b       	or	r19, r21
     91c:	30 93 91 00 	sts	0x0091, r19	; 0x800091 <irmp_tmp_address+0x1>
     920:	20 93 90 00 	sts	0x0090, r18	; 0x800090 <irmp_tmp_address>
     924:	02 c0       	rjmp	.+4      	; 0x92a <irmp_store_bit+0x290>
     926:	10 92 7c 00 	sts	0x007C, r1	; 0x80007c <mitsu_parity>
     92a:	10 92 8f 00 	sts	0x008F, r1	; 0x80008f <irmp_tmp_command+0x1>
     92e:	10 92 8e 00 	sts	0x008E, r1	; 0x80008e <irmp_tmp_command>
     932:	02 c0       	rjmp	.+4      	; 0x938 <irmp_store_bit+0x29e>
     934:	98 34       	cpi	r25, 0x48	; 72
     936:	58 f0       	brcs	.+22     	; 0x94e <irmp_store_bit+0x2b4>
     938:	20 91 8e 00 	lds	r18, 0x008E	; 0x80008e <irmp_tmp_command>
     93c:	30 91 8f 00 	lds	r19, 0x008F	; 0x80008f <irmp_tmp_command+0x1>
     940:	22 0f       	add	r18, r18
     942:	33 1f       	adc	r19, r19
     944:	28 2b       	or	r18, r24
     946:	30 93 8f 00 	sts	0x008F, r19	; 0x80008f <irmp_tmp_command+0x1>
     94a:	20 93 8e 00 	sts	0x008E, r18	; 0x80008e <irmp_tmp_command>
     94e:	9f 5f       	subi	r25, 0xFF	; 255
     950:	90 93 ac 00 	sts	0x00AC, r25	; 0x8000ac <irmp_bit>
     954:	08 95       	ret

00000956 <irmp_init>:
     956:	96 98       	cbi	0x12, 6	; 18
     958:	8e 98       	cbi	0x11, 6	; 17
     95a:	08 95       	ret

0000095c <irmp_get_data>:
     95c:	fc 01       	movw	r30, r24
     95e:	80 91 9a 00 	lds	r24, 0x009A	; 0x80009a <irmp_ir_detected>
     962:	88 23       	and	r24, r24
     964:	09 f4       	brne	.+2      	; 0x968 <irmp_get_data+0xc>
     966:	d6 c0       	rjmp	.+428    	; 0xb14 <irmp_get_data+0x1b8>
     968:	90 91 99 00 	lds	r25, 0x0099	; 0x800099 <irmp_protocol>
     96c:	97 31       	cpi	r25, 0x17	; 23
     96e:	09 f4       	brne	.+2      	; 0x972 <irmp_get_data+0x16>
     970:	a0 c0       	rjmp	.+320    	; 0xab2 <irmp_get_data+0x156>
     972:	70 f4       	brcc	.+28     	; 0x990 <irmp_get_data+0x34>
     974:	93 30       	cpi	r25, 0x03	; 3
     976:	d1 f0       	breq	.+52     	; 0x9ac <irmp_get_data+0x50>
     978:	20 f4       	brcc	.+8      	; 0x982 <irmp_get_data+0x26>
     97a:	92 30       	cpi	r25, 0x02	; 2
     97c:	09 f4       	brne	.+2      	; 0x980 <irmp_get_data+0x24>
     97e:	49 c0       	rjmp	.+146    	; 0xa12 <irmp_get_data+0xb6>
     980:	cb c0       	rjmp	.+406    	; 0xb18 <irmp_get_data+0x1bc>
     982:	97 30       	cpi	r25, 0x07	; 7
     984:	09 f4       	brne	.+2      	; 0x988 <irmp_get_data+0x2c>
     986:	b4 c0       	rjmp	.+360    	; 0xaf0 <irmp_get_data+0x194>
     988:	91 31       	cpi	r25, 0x11	; 17
     98a:	09 f4       	brne	.+2      	; 0x98e <irmp_get_data+0x32>
     98c:	92 c0       	rjmp	.+292    	; 0xab2 <irmp_get_data+0x156>
     98e:	c4 c0       	rjmp	.+392    	; 0xb18 <irmp_get_data+0x1bc>
     990:	9f 31       	cpi	r25, 0x1F	; 31
     992:	09 f4       	brne	.+2      	; 0x996 <irmp_get_data+0x3a>
     994:	77 c0       	rjmp	.+238    	; 0xa84 <irmp_get_data+0x128>
     996:	20 f4       	brcc	.+8      	; 0x9a0 <irmp_get_data+0x44>
     998:	98 31       	cpi	r25, 0x18	; 24
     99a:	09 f4       	brne	.+2      	; 0x99e <irmp_get_data+0x42>
     99c:	b3 c0       	rjmp	.+358    	; 0xb04 <irmp_get_data+0x1a8>
     99e:	bc c0       	rjmp	.+376    	; 0xb18 <irmp_get_data+0x1bc>
     9a0:	99 32       	cpi	r25, 0x29	; 41
     9a2:	59 f1       	breq	.+86     	; 0x9fa <irmp_get_data+0x9e>
     9a4:	92 33       	cpi	r25, 0x32	; 50
     9a6:	09 f4       	brne	.+2      	; 0x9aa <irmp_get_data+0x4e>
     9a8:	5d c0       	rjmp	.+186    	; 0xa64 <irmp_get_data+0x108>
     9aa:	b6 c0       	rjmp	.+364    	; 0xb18 <irmp_get_data+0x1bc>
     9ac:	20 91 95 00 	lds	r18, 0x0095	; 0x800095 <irmp_command>
     9b0:	30 91 96 00 	lds	r19, 0x0096	; 0x800096 <irmp_command+0x1>
     9b4:	80 91 95 00 	lds	r24, 0x0095	; 0x800095 <irmp_command>
     9b8:	90 91 96 00 	lds	r25, 0x0096	; 0x800096 <irmp_command+0x1>
     9bc:	23 2f       	mov	r18, r19
     9be:	33 27       	eor	r19, r19
     9c0:	80 95       	com	r24
     9c2:	90 95       	com	r25
     9c4:	99 27       	eor	r25, r25
     9c6:	28 17       	cp	r18, r24
     9c8:	39 07       	cpc	r19, r25
     9ca:	09 f0       	breq	.+2      	; 0x9ce <irmp_get_data+0x72>
     9cc:	c5 c0       	rjmp	.+394    	; 0xb58 <irmp_get_data+0x1fc>
     9ce:	80 91 95 00 	lds	r24, 0x0095	; 0x800095 <irmp_command>
     9d2:	90 91 96 00 	lds	r25, 0x0096	; 0x800096 <irmp_command+0x1>
     9d6:	99 27       	eor	r25, r25
     9d8:	90 93 96 00 	sts	0x0096, r25	; 0x800096 <irmp_command+0x1>
     9dc:	80 93 95 00 	sts	0x0095, r24	; 0x800095 <irmp_command>
     9e0:	80 91 93 00 	lds	r24, 0x0093	; 0x800093 <irmp_id>
     9e4:	90 91 94 00 	lds	r25, 0x0094	; 0x800094 <irmp_id+0x1>
     9e8:	20 91 95 00 	lds	r18, 0x0095	; 0x800095 <irmp_command>
     9ec:	30 91 96 00 	lds	r19, 0x0096	; 0x800096 <irmp_command+0x1>
     9f0:	98 2f       	mov	r25, r24
     9f2:	88 27       	eor	r24, r24
     9f4:	82 2b       	or	r24, r18
     9f6:	93 2b       	or	r25, r19
     9f8:	76 c0       	rjmp	.+236    	; 0xae6 <irmp_get_data+0x18a>
     9fa:	20 91 95 00 	lds	r18, 0x0095	; 0x800095 <irmp_command>
     9fe:	30 91 96 00 	lds	r19, 0x0096	; 0x800096 <irmp_command+0x1>
     a02:	80 91 93 00 	lds	r24, 0x0093	; 0x800093 <irmp_id>
     a06:	90 91 94 00 	lds	r25, 0x0094	; 0x800094 <irmp_id+0x1>
     a0a:	98 2f       	mov	r25, r24
     a0c:	88 27       	eor	r24, r24
     a0e:	82 2b       	or	r24, r18
     a10:	6a c0       	rjmp	.+212    	; 0xae6 <irmp_get_data+0x18a>
     a12:	80 91 95 00 	lds	r24, 0x0095	; 0x800095 <irmp_command>
     a16:	90 91 96 00 	lds	r25, 0x0096	; 0x800096 <irmp_command+0x1>
     a1a:	20 91 95 00 	lds	r18, 0x0095	; 0x800095 <irmp_command>
     a1e:	30 91 96 00 	lds	r19, 0x0096	; 0x800096 <irmp_command+0x1>
     a22:	89 2f       	mov	r24, r25
     a24:	99 27       	eor	r25, r25
     a26:	20 95       	com	r18
     a28:	30 95       	com	r19
     a2a:	33 27       	eor	r19, r19
     a2c:	82 17       	cp	r24, r18
     a2e:	93 07       	cpc	r25, r19
     a30:	d1 f1       	breq	.+116    	; 0xaa6 <irmp_get_data+0x14a>
     a32:	80 91 97 00 	lds	r24, 0x0097	; 0x800097 <irmp_address>
     a36:	90 91 98 00 	lds	r25, 0x0098	; 0x800098 <irmp_address+0x1>
     a3a:	8e 3e       	cpi	r24, 0xEE	; 238
     a3c:	97 48       	sbci	r25, 0x87	; 135
     a3e:	71 f4       	brne	.+28     	; 0xa5c <irmp_get_data+0x100>
     a40:	8b e0       	ldi	r24, 0x0B	; 11
     a42:	80 93 99 00 	sts	0x0099, r24	; 0x800099 <irmp_protocol>
     a46:	80 91 95 00 	lds	r24, 0x0095	; 0x800095 <irmp_command>
     a4a:	90 91 96 00 	lds	r25, 0x0096	; 0x800096 <irmp_command+0x1>
     a4e:	89 2f       	mov	r24, r25
     a50:	99 27       	eor	r25, r25
     a52:	90 93 98 00 	sts	0x0098, r25	; 0x800098 <irmp_address+0x1>
     a56:	80 93 97 00 	sts	0x0097, r24	; 0x800097 <irmp_address>
     a5a:	25 c0       	rjmp	.+74     	; 0xaa6 <irmp_get_data+0x14a>
     a5c:	88 e3       	ldi	r24, 0x38	; 56
     a5e:	80 93 99 00 	sts	0x0099, r24	; 0x800099 <irmp_protocol>
     a62:	5a c0       	rjmp	.+180    	; 0xb18 <irmp_get_data+0x1bc>
     a64:	20 91 95 00 	lds	r18, 0x0095	; 0x800095 <irmp_command>
     a68:	30 91 96 00 	lds	r19, 0x0096	; 0x800096 <irmp_command+0x1>
     a6c:	80 91 95 00 	lds	r24, 0x0095	; 0x800095 <irmp_command>
     a70:	90 91 96 00 	lds	r25, 0x0096	; 0x800096 <irmp_command+0x1>
     a74:	23 2f       	mov	r18, r19
     a76:	33 27       	eor	r19, r19
     a78:	99 27       	eor	r25, r25
     a7a:	28 17       	cp	r18, r24
     a7c:	39 07       	cpc	r19, r25
     a7e:	09 f0       	breq	.+2      	; 0xa82 <irmp_get_data+0x126>
     a80:	6b c0       	rjmp	.+214    	; 0xb58 <irmp_get_data+0x1fc>
     a82:	11 c0       	rjmp	.+34     	; 0xaa6 <irmp_get_data+0x14a>
     a84:	80 91 95 00 	lds	r24, 0x0095	; 0x800095 <irmp_command>
     a88:	90 91 96 00 	lds	r25, 0x0096	; 0x800096 <irmp_command+0x1>
     a8c:	20 91 95 00 	lds	r18, 0x0095	; 0x800095 <irmp_command>
     a90:	30 91 96 00 	lds	r19, 0x0096	; 0x800096 <irmp_command+0x1>
     a94:	89 2f       	mov	r24, r25
     a96:	99 27       	eor	r25, r25
     a98:	20 95       	com	r18
     a9a:	30 95       	com	r19
     a9c:	33 27       	eor	r19, r19
     a9e:	82 17       	cp	r24, r18
     aa0:	93 07       	cpc	r25, r19
     aa2:	09 f0       	breq	.+2      	; 0xaa6 <irmp_get_data+0x14a>
     aa4:	59 c0       	rjmp	.+178    	; 0xb58 <irmp_get_data+0x1fc>
     aa6:	80 91 95 00 	lds	r24, 0x0095	; 0x800095 <irmp_command>
     aaa:	90 91 96 00 	lds	r25, 0x0096	; 0x800096 <irmp_command+0x1>
     aae:	99 27       	eor	r25, r25
     ab0:	1a c0       	rjmp	.+52     	; 0xae6 <irmp_get_data+0x18a>
     ab2:	80 91 95 00 	lds	r24, 0x0095	; 0x800095 <irmp_command>
     ab6:	90 91 96 00 	lds	r25, 0x0096	; 0x800096 <irmp_command+0x1>
     aba:	20 91 95 00 	lds	r18, 0x0095	; 0x800095 <irmp_command>
     abe:	30 91 96 00 	lds	r19, 0x0096	; 0x800096 <irmp_command+0x1>
     ac2:	86 95       	lsr	r24
     ac4:	81 70       	andi	r24, 0x01	; 1
     ac6:	91 e0       	ldi	r25, 0x01	; 1
     ac8:	89 27       	eor	r24, r25
     aca:	21 70       	andi	r18, 0x01	; 1
     acc:	33 27       	eor	r19, r19
     ace:	91 e0       	ldi	r25, 0x01	; 1
     ad0:	29 27       	eor	r18, r25
     ad2:	21 70       	andi	r18, 0x01	; 1
     ad4:	82 17       	cp	r24, r18
     ad6:	09 f4       	brne	.+2      	; 0xada <irmp_get_data+0x17e>
     ad8:	3f c0       	rjmp	.+126    	; 0xb58 <irmp_get_data+0x1fc>
     ada:	80 91 95 00 	lds	r24, 0x0095	; 0x800095 <irmp_command>
     ade:	90 91 96 00 	lds	r25, 0x0096	; 0x800096 <irmp_command+0x1>
     ae2:	96 95       	lsr	r25
     ae4:	87 95       	ror	r24
     ae6:	90 93 96 00 	sts	0x0096, r25	; 0x800096 <irmp_command+0x1>
     aea:	80 93 95 00 	sts	0x0095, r24	; 0x800095 <irmp_command>
     aee:	14 c0       	rjmp	.+40     	; 0xb18 <irmp_get_data+0x1bc>
     af0:	80 91 97 00 	lds	r24, 0x0097	; 0x800097 <irmp_address>
     af4:	90 91 98 00 	lds	r25, 0x0098	; 0x800098 <irmp_address+0x1>
     af8:	8f 7d       	andi	r24, 0xDF	; 223
     afa:	90 93 98 00 	sts	0x0098, r25	; 0x800098 <irmp_address+0x1>
     afe:	80 93 97 00 	sts	0x0097, r24	; 0x800097 <irmp_address>
     b02:	0a c0       	rjmp	.+20     	; 0xb18 <irmp_get_data+0x1bc>
     b04:	80 91 95 00 	lds	r24, 0x0095	; 0x800095 <irmp_command>
     b08:	90 91 96 00 	lds	r25, 0x0096	; 0x800096 <irmp_command+0x1>
     b0c:	8d 37       	cpi	r24, 0x7D	; 125
     b0e:	91 05       	cpc	r25, r1
     b10:	19 f4       	brne	.+6      	; 0xb18 <irmp_get_data+0x1bc>
     b12:	22 c0       	rjmp	.+68     	; 0xb58 <irmp_get_data+0x1fc>
     b14:	80 e0       	ldi	r24, 0x00	; 0
     b16:	08 95       	ret
     b18:	80 91 99 00 	lds	r24, 0x0099	; 0x800099 <irmp_protocol>
     b1c:	80 83       	st	Z, r24
     b1e:	80 91 97 00 	lds	r24, 0x0097	; 0x800097 <irmp_address>
     b22:	90 91 98 00 	lds	r25, 0x0098	; 0x800098 <irmp_address+0x1>
     b26:	92 83       	std	Z+2, r25	; 0x02
     b28:	81 83       	std	Z+1, r24	; 0x01
     b2a:	80 91 95 00 	lds	r24, 0x0095	; 0x800095 <irmp_command>
     b2e:	90 91 96 00 	lds	r25, 0x0096	; 0x800096 <irmp_command+0x1>
     b32:	94 83       	std	Z+4, r25	; 0x04
     b34:	83 83       	std	Z+3, r24	; 0x03
     b36:	80 91 92 00 	lds	r24, 0x0092	; 0x800092 <irmp_flags>
     b3a:	85 83       	std	Z+5, r24	; 0x05
     b3c:	81 e0       	ldi	r24, 0x01	; 1
     b3e:	10 92 96 00 	sts	0x0096, r1	; 0x800096 <irmp_command+0x1>
     b42:	10 92 95 00 	sts	0x0095, r1	; 0x800095 <irmp_command>
     b46:	10 92 98 00 	sts	0x0098, r1	; 0x800098 <irmp_address+0x1>
     b4a:	10 92 97 00 	sts	0x0097, r1	; 0x800097 <irmp_address>
     b4e:	10 92 92 00 	sts	0x0092, r1	; 0x800092 <irmp_flags>
     b52:	10 92 9a 00 	sts	0x009A, r1	; 0x80009a <irmp_ir_detected>
     b56:	08 95       	ret
     b58:	10 92 99 00 	sts	0x0099, r1	; 0x800099 <irmp_protocol>
     b5c:	80 e0       	ldi	r24, 0x00	; 0
     b5e:	ef cf       	rjmp	.-34     	; 0xb3e <irmp_get_data+0x1e2>

00000b60 <irmp_set_callback_ptr>:
     b60:	90 93 af 00 	sts	0x00AF, r25	; 0x8000af <irmp_callback_ptr+0x1>
     b64:	80 93 ae 00 	sts	0x00AE, r24	; 0x8000ae <irmp_callback_ptr>
     b68:	08 95       	ret

00000b6a <irmp_ISR>:
     b6a:	cf 93       	push	r28
     b6c:	df 93       	push	r29
     b6e:	c0 b3       	in	r28, 0x10	; 16
     b70:	c0 74       	andi	r28, 0x40	; 64
     b72:	e0 91 ae 00 	lds	r30, 0x00AE	; 0x8000ae <irmp_callback_ptr>
     b76:	f0 91 af 00 	lds	r31, 0x00AF	; 0x8000af <irmp_callback_ptr+0x1>
     b7a:	30 97       	sbiw	r30, 0x00	; 0
     b7c:	79 f0       	breq	.+30     	; 0xb9c <irmp_ISR+0x32>
     b7e:	d1 e0       	ldi	r29, 0x01	; 1
     b80:	c1 11       	cpse	r28, r1
     b82:	d0 e0       	ldi	r29, 0x00	; 0
     b84:	80 91 7b 00 	lds	r24, 0x007B	; 0x80007b <last_inverted_input.2346>
     b88:	90 e0       	ldi	r25, 0x00	; 0
     b8a:	2d 2f       	mov	r18, r29
     b8c:	30 e0       	ldi	r19, 0x00	; 0
     b8e:	82 17       	cp	r24, r18
     b90:	93 07       	cpc	r25, r19
     b92:	21 f0       	breq	.+8      	; 0xb9c <irmp_ISR+0x32>
     b94:	8d 2f       	mov	r24, r29
     b96:	09 95       	icall
     b98:	d0 93 7b 00 	sts	0x007B, r29	; 0x80007b <last_inverted_input.2346>
     b9c:	80 91 9a 00 	lds	r24, 0x009A	; 0x80009a <irmp_ir_detected>
     ba0:	81 11       	cpse	r24, r1
     ba2:	dd c4       	rjmp	.+2490   	; 0x155e <irmp_ISR+0x9f4>
     ba4:	80 91 7a 00 	lds	r24, 0x007A	; 0x80007a <irmp_start_bit_detected.2331>
     ba8:	81 11       	cpse	r24, r1
     baa:	6b c0       	rjmp	.+214    	; 0xc82 <irmp_ISR+0x118>
     bac:	80 91 79 00 	lds	r24, 0x0079	; 0x800079 <irmp_pulse_time.2334>
     bb0:	c1 11       	cpse	r28, r1
     bb2:	02 c0       	rjmp	.+4      	; 0xbb8 <irmp_ISR+0x4e>
     bb4:	8f 5f       	subi	r24, 0xFF	; 255
     bb6:	d1 c4       	rjmp	.+2466   	; 0x155a <irmp_ISR+0x9f0>
     bb8:	88 23       	and	r24, r24
     bba:	89 f1       	breq	.+98     	; 0xc1e <irmp_ISR+0xb4>
     bbc:	81 e0       	ldi	r24, 0x01	; 1
     bbe:	80 93 7a 00 	sts	0x007A, r24	; 0x80007a <irmp_start_bit_detected.2331>
     bc2:	80 93 78 00 	sts	0x0078, r24	; 0x800078 <wait_for_start_space.2333>
     bc6:	10 92 77 00 	sts	0x0077, r1	; 0x800077 <wait_for_space.2332>
     bca:	10 92 8f 00 	sts	0x008F, r1	; 0x80008f <irmp_tmp_command+0x1>
     bce:	10 92 8e 00 	sts	0x008E, r1	; 0x80008e <irmp_tmp_command>
     bd2:	10 92 91 00 	sts	0x0091, r1	; 0x800091 <irmp_tmp_address+0x1>
     bd6:	10 92 90 00 	sts	0x0090, r1	; 0x800090 <irmp_tmp_address>
     bda:	10 92 7d 00 	sts	0x007D, r1	; 0x80007d <genre2>
     bde:	10 92 85 00 	sts	0x0085, r1	; 0x800085 <irmp_tmp_id+0x1>
     be2:	10 92 84 00 	sts	0x0084, r1	; 0x800084 <irmp_tmp_id>
     be6:	10 92 8d 00 	sts	0x008D, r1	; 0x80008d <irmp_tmp_address2+0x1>
     bea:	10 92 8c 00 	sts	0x008C, r1	; 0x80008c <irmp_tmp_address2>
     bee:	10 92 89 00 	sts	0x0089, r1	; 0x800089 <irmp_lgair_command+0x1>
     bf2:	10 92 88 00 	sts	0x0088, r1	; 0x800088 <irmp_lgair_command>
     bf6:	10 92 8b 00 	sts	0x008B, r1	; 0x80008b <irmp_lgair_address+0x1>
     bfa:	10 92 8a 00 	sts	0x008A, r1	; 0x80008a <irmp_lgair_address>
     bfe:	10 92 87 00 	sts	0x0087, r1	; 0x800087 <irmp_melinera_command+0x1>
     c02:	10 92 86 00 	sts	0x0086, r1	; 0x800086 <irmp_melinera_command>
     c06:	8f ef       	ldi	r24, 0xFF	; 255
     c08:	80 93 ac 00 	sts	0x00AC, r24	; 0x8000ac <irmp_bit>
     c0c:	81 e0       	ldi	r24, 0x01	; 1
     c0e:	90 e0       	ldi	r25, 0x00	; 0
     c10:	90 93 76 00 	sts	0x0076, r25	; 0x800076 <irmp_pause_time.2335+0x1>
     c14:	80 93 75 00 	sts	0x0075, r24	; 0x800075 <irmp_pause_time.2335>
     c18:	10 92 74 00 	sts	0x0074, r1	; 0x800074 <rc5_cmd_bit6.2342>
     c1c:	a0 c4       	rjmp	.+2368   	; 0x155e <irmp_ISR+0x9f4>
     c1e:	80 91 72 00 	lds	r24, 0x0072	; 0x800072 <key_repetition_len.2338>
     c22:	90 91 73 00 	lds	r25, 0x0073	; 0x800073 <key_repetition_len.2338+0x1>
     c26:	8f 3f       	cpi	r24, 0xFF	; 255
     c28:	2f ef       	ldi	r18, 0xFF	; 255
     c2a:	92 07       	cpc	r25, r18
     c2c:	09 f4       	brne	.+2      	; 0xc30 <irmp_ISR+0xc6>
     c2e:	97 c4       	rjmp	.+2350   	; 0x155e <irmp_ISR+0x9f4>
     c30:	01 96       	adiw	r24, 0x01	; 1
     c32:	90 93 73 00 	sts	0x0073, r25	; 0x800073 <key_repetition_len.2338+0x1>
     c36:	80 93 72 00 	sts	0x0072, r24	; 0x800072 <key_repetition_len.2338>
     c3a:	80 91 64 00 	lds	r24, 0x0064	; 0x800064 <denon_repetition_len.2341>
     c3e:	90 91 65 00 	lds	r25, 0x0065	; 0x800065 <denon_repetition_len.2341+0x1>
     c42:	8f 3f       	cpi	r24, 0xFF	; 255
     c44:	6f ef       	ldi	r22, 0xFF	; 255
     c46:	96 07       	cpc	r25, r22
     c48:	09 f4       	brne	.+2      	; 0xc4c <irmp_ISR+0xe2>
     c4a:	89 c4       	rjmp	.+2322   	; 0x155e <irmp_ISR+0x9f4>
     c4c:	01 96       	adiw	r24, 0x01	; 1
     c4e:	90 93 65 00 	sts	0x0065, r25	; 0x800065 <denon_repetition_len.2341+0x1>
     c52:	80 93 64 00 	sts	0x0064, r24	; 0x800064 <denon_repetition_len.2341>
     c56:	88 3e       	cpi	r24, 0xE8	; 232
     c58:	92 40       	sbci	r25, 0x02	; 2
     c5a:	08 f4       	brcc	.+2      	; 0xc5e <irmp_ISR+0xf4>
     c5c:	80 c4       	rjmp	.+2304   	; 0x155e <irmp_ISR+0x9f4>
     c5e:	80 91 70 00 	lds	r24, 0x0070	; 0x800070 <last_irmp_denon_command.2340>
     c62:	90 91 71 00 	lds	r25, 0x0071	; 0x800071 <last_irmp_denon_command.2340+0x1>
     c66:	89 2b       	or	r24, r25
     c68:	09 f4       	brne	.+2      	; 0xc6c <irmp_ISR+0x102>
     c6a:	79 c4       	rjmp	.+2290   	; 0x155e <irmp_ISR+0x9f4>
     c6c:	10 92 71 00 	sts	0x0071, r1	; 0x800071 <last_irmp_denon_command.2340+0x1>
     c70:	10 92 70 00 	sts	0x0070, r1	; 0x800070 <last_irmp_denon_command.2340>
     c74:	8f ef       	ldi	r24, 0xFF	; 255
     c76:	9f ef       	ldi	r25, 0xFF	; 255
     c78:	90 93 65 00 	sts	0x0065, r25	; 0x800065 <denon_repetition_len.2341+0x1>
     c7c:	80 93 64 00 	sts	0x0064, r24	; 0x800064 <denon_repetition_len.2341>
     c80:	6e c4       	rjmp	.+2268   	; 0x155e <irmp_ISR+0x9f4>
     c82:	80 91 78 00 	lds	r24, 0x0078	; 0x800078 <wait_for_start_space.2333>
     c86:	88 23       	and	r24, r24
     c88:	09 f4       	brne	.+2      	; 0xc8c <irmp_ISR+0x122>
     c8a:	77 c2       	rjmp	.+1262   	; 0x117a <irmp_ISR+0x610>
     c8c:	80 91 79 00 	lds	r24, 0x0079	; 0x800079 <irmp_pulse_time.2334>
     c90:	cc 23       	and	r28, r28
     c92:	01 f1       	breq	.+64     	; 0xcd4 <irmp_ISR+0x16a>
     c94:	20 91 75 00 	lds	r18, 0x0075	; 0x800075 <irmp_pause_time.2335>
     c98:	30 91 76 00 	lds	r19, 0x0076	; 0x800076 <irmp_pause_time.2335+0x1>
     c9c:	2f 5f       	subi	r18, 0xFF	; 255
     c9e:	3f 4f       	sbci	r19, 0xFF	; 255
     ca0:	30 93 76 00 	sts	0x0076, r19	; 0x800076 <irmp_pause_time.2335+0x1>
     ca4:	20 93 75 00 	sts	0x0075, r18	; 0x800075 <irmp_pause_time.2335>
     ca8:	89 51       	subi	r24, 0x19	; 25
     caa:	81 31       	cpi	r24, 0x11	; 17
     cac:	20 f0       	brcs	.+8      	; 0xcb6 <irmp_ISR+0x14c>
     cae:	2a 3e       	cpi	r18, 0xEA	; 234
     cb0:	31 05       	cpc	r19, r1
     cb2:	28 f4       	brcc	.+10     	; 0xcbe <irmp_ISR+0x154>
     cb4:	e6 c3       	rjmp	.+1996   	; 0x1482 <irmp_ISR+0x918>
     cb6:	2c 3b       	cpi	r18, 0xBC	; 188
     cb8:	31 40       	sbci	r19, 0x01	; 1
     cba:	08 f4       	brcc	.+2      	; 0xcbe <irmp_ISR+0x154>
     cbc:	e2 c3       	rjmp	.+1988   	; 0x1482 <irmp_ISR+0x918>
     cbe:	80 91 99 00 	lds	r24, 0x0099	; 0x800099 <irmp_protocol>
     cc2:	10 92 7a 00 	sts	0x007A, r1	; 0x80007a <irmp_start_bit_detected.2331>
     cc6:	10 92 79 00 	sts	0x0079, r1	; 0x800079 <irmp_pulse_time.2334>
     cca:	10 92 76 00 	sts	0x0076, r1	; 0x800076 <irmp_pause_time.2335+0x1>
     cce:	10 92 75 00 	sts	0x0075, r1	; 0x800075 <irmp_pause_time.2335>
     cd2:	d7 c3       	rjmp	.+1966   	; 0x1482 <irmp_ISR+0x918>
     cd4:	10 92 ac 00 	sts	0x00AC, r1	; 0x8000ac <irmp_bit>
     cd8:	91 ee       	ldi	r25, 0xE1	; 225
     cda:	98 0f       	add	r25, r24
     cdc:	9b 30       	cpi	r25, 0x0B	; 11
     cde:	50 f4       	brcc	.+20     	; 0xcf4 <irmp_ISR+0x18a>
     ce0:	20 91 75 00 	lds	r18, 0x0075	; 0x800075 <irmp_pause_time.2335>
     ce4:	30 91 76 00 	lds	r19, 0x0076	; 0x800076 <irmp_pause_time.2335+0x1>
     ce8:	26 50       	subi	r18, 0x06	; 6
     cea:	31 09       	sbc	r19, r1
     cec:	25 30       	cpi	r18, 0x05	; 5
     cee:	31 05       	cpc	r19, r1
     cf0:	08 f4       	brcc	.+2      	; 0xcf4 <irmp_ISR+0x18a>
     cf2:	be c1       	rjmp	.+892    	; 0x1070 <irmp_ISR+0x506>
     cf4:	90 91 99 00 	lds	r25, 0x0099	; 0x800099 <irmp_protocol>
     cf8:	94 31       	cpi	r25, 0x14	; 20
     cfa:	71 f4       	brne	.+28     	; 0xd18 <irmp_ISR+0x1ae>
     cfc:	90 eb       	ldi	r25, 0xB0	; 176
     cfe:	98 0f       	add	r25, r24
     d00:	9f 36       	cpi	r25, 0x6F	; 111
     d02:	50 f4       	brcc	.+20     	; 0xd18 <irmp_ISR+0x1ae>
     d04:	20 91 75 00 	lds	r18, 0x0075	; 0x800075 <irmp_pause_time.2335>
     d08:	30 91 76 00 	lds	r19, 0x0076	; 0x800076 <irmp_pause_time.2335+0x1>
     d0c:	2a 53       	subi	r18, 0x3A	; 58
     d0e:	31 09       	sbc	r19, r1
     d10:	2c 36       	cpi	r18, 0x6C	; 108
     d12:	31 05       	cpc	r19, r1
     d14:	08 f4       	brcc	.+2      	; 0xd18 <irmp_ISR+0x1ae>
     d16:	b2 c1       	rjmp	.+868    	; 0x107c <irmp_ISR+0x512>
     d18:	92 ea       	ldi	r25, 0xA2	; 162
     d1a:	98 0f       	add	r25, r24
     d1c:	94 35       	cpi	r25, 0x54	; 84
     d1e:	c0 f4       	brcc	.+48     	; 0xd50 <irmp_ISR+0x1e6>
     d20:	20 91 75 00 	lds	r18, 0x0075	; 0x800075 <irmp_pause_time.2335>
     d24:	30 91 76 00 	lds	r19, 0x0076	; 0x800076 <irmp_pause_time.2335+0x1>
     d28:	a9 01       	movw	r20, r18
     d2a:	4e 52       	subi	r20, 0x2E	; 46
     d2c:	51 09       	sbc	r21, r1
     d2e:	4c 32       	cpi	r20, 0x2C	; 44
     d30:	51 05       	cpc	r21, r1
     d32:	08 f4       	brcc	.+2      	; 0xd36 <irmp_ISR+0x1cc>
     d34:	a0 c1       	rjmp	.+832    	; 0x1076 <irmp_ISR+0x50c>
     d36:	27 51       	subi	r18, 0x17	; 23
     d38:	31 09       	sbc	r19, r1
     d3a:	27 31       	cpi	r18, 0x17	; 23
     d3c:	31 05       	cpc	r19, r1
     d3e:	40 f4       	brcc	.+16     	; 0xd50 <irmp_ISR+0x1e6>
     d40:	80 91 99 00 	lds	r24, 0x0099	; 0x800099 <irmp_protocol>
     d44:	84 31       	cpi	r24, 0x14	; 20
     d46:	09 f4       	brne	.+2      	; 0xd4a <irmp_ISR+0x1e0>
     d48:	99 c1       	rjmp	.+818    	; 0x107c <irmp_ISR+0x512>
     d4a:	62 eb       	ldi	r22, 0xB2	; 178
     d4c:	72 e0       	ldi	r23, 0x02	; 2
     d4e:	c5 c1       	rjmp	.+906    	; 0x10da <irmp_ISR+0x570>
     d50:	20 91 99 00 	lds	r18, 0x0099	; 0x800099 <irmp_protocol>
     d54:	24 31       	cpi	r18, 0x14	; 20
     d56:	61 f4       	brne	.+24     	; 0xd70 <irmp_ISR+0x206>
     d58:	94 35       	cpi	r25, 0x54	; 84
     d5a:	50 f4       	brcc	.+20     	; 0xd70 <irmp_ISR+0x206>
     d5c:	20 91 75 00 	lds	r18, 0x0075	; 0x800075 <irmp_pause_time.2335>
     d60:	30 91 76 00 	lds	r19, 0x0076	; 0x800076 <irmp_pause_time.2335+0x1>
     d64:	25 50       	subi	r18, 0x05	; 5
     d66:	31 09       	sbc	r19, r1
     d68:	28 30       	cpi	r18, 0x08	; 8
     d6a:	31 05       	cpc	r19, r1
     d6c:	08 f4       	brcc	.+2      	; 0xd70 <irmp_ISR+0x206>
     d6e:	86 c1       	rjmp	.+780    	; 0x107c <irmp_ISR+0x512>
     d70:	99 ef       	ldi	r25, 0xF9	; 249
     d72:	98 0f       	add	r25, r24
     d74:	95 30       	cpi	r25, 0x05	; 5
     d76:	50 f4       	brcc	.+20     	; 0xd8c <irmp_ISR+0x222>
     d78:	20 91 75 00 	lds	r18, 0x0075	; 0x800075 <irmp_pause_time.2335>
     d7c:	30 91 76 00 	lds	r19, 0x0076	; 0x800076 <irmp_pause_time.2335+0x1>
     d80:	23 51       	subi	r18, 0x13	; 19
     d82:	31 09       	sbc	r19, r1
     d84:	26 30       	cpi	r18, 0x06	; 6
     d86:	31 05       	cpc	r19, r1
     d88:	08 f4       	brcc	.+2      	; 0xd8c <irmp_ISR+0x222>
     d8a:	7b c1       	rjmp	.+758    	; 0x1082 <irmp_ISR+0x518>
     d8c:	91 e5       	ldi	r25, 0x51	; 81
     d8e:	98 0f       	add	r25, r24
     d90:	9a 32       	cpi	r25, 0x2A	; 42
     d92:	50 f4       	brcc	.+20     	; 0xda8 <irmp_ISR+0x23e>
     d94:	20 91 75 00 	lds	r18, 0x0075	; 0x800075 <irmp_pause_time.2335>
     d98:	30 91 76 00 	lds	r19, 0x0076	; 0x800076 <irmp_pause_time.2335+0x1>
     d9c:	28 52       	subi	r18, 0x28	; 40
     d9e:	31 09       	sbc	r19, r1
     da0:	2c 30       	cpi	r18, 0x0C	; 12
     da2:	31 05       	cpc	r19, r1
     da4:	08 f4       	brcc	.+2      	; 0xda8 <irmp_ISR+0x23e>
     da6:	70 c1       	rjmp	.+736    	; 0x1088 <irmp_ISR+0x51e>
     da8:	97 ee       	ldi	r25, 0xE7	; 231
     daa:	98 0f       	add	r25, r24
     dac:	91 31       	cpi	r25, 0x11	; 17
     dae:	50 f4       	brcc	.+20     	; 0xdc4 <irmp_ISR+0x25a>
     db0:	20 91 75 00 	lds	r18, 0x0075	; 0x800075 <irmp_pause_time.2335>
     db4:	30 91 76 00 	lds	r19, 0x0076	; 0x800076 <irmp_pause_time.2335+0x1>
     db8:	24 54       	subi	r18, 0x44	; 68
     dba:	31 40       	sbci	r19, 0x01	; 1
     dbc:	26 3a       	cpi	r18, 0xA6	; 166
     dbe:	31 05       	cpc	r19, r1
     dc0:	08 f4       	brcc	.+2      	; 0xdc4 <irmp_ISR+0x25a>
     dc2:	65 c1       	rjmp	.+714    	; 0x108e <irmp_ISR+0x524>
     dc4:	94 ec       	ldi	r25, 0xC4	; 196
     dc6:	98 0f       	add	r25, r24
     dc8:	90 31       	cpi	r25, 0x10	; 16
     dca:	50 f4       	brcc	.+20     	; 0xde0 <irmp_ISR+0x276>
     dcc:	20 91 75 00 	lds	r18, 0x0075	; 0x800075 <irmp_pause_time.2335>
     dd0:	30 91 76 00 	lds	r19, 0x0076	; 0x800076 <irmp_pause_time.2335+0x1>
     dd4:	2c 53       	subi	r18, 0x3C	; 60
     dd6:	31 09       	sbc	r19, r1
     dd8:	20 31       	cpi	r18, 0x10	; 16
     dda:	31 05       	cpc	r19, r1
     ddc:	08 f4       	brcc	.+2      	; 0xde0 <irmp_ISR+0x276>
     dde:	5a c1       	rjmp	.+692    	; 0x1094 <irmp_ISR+0x52a>
     de0:	97 ed       	ldi	r25, 0xD7	; 215
     de2:	98 0f       	add	r25, r24
     de4:	98 31       	cpi	r25, 0x18	; 24
     de6:	50 f4       	brcc	.+20     	; 0xdfc <irmp_ISR+0x292>
     de8:	20 91 75 00 	lds	r18, 0x0075	; 0x800075 <irmp_pause_time.2335>
     dec:	30 91 76 00 	lds	r19, 0x0076	; 0x800076 <irmp_pause_time.2335+0x1>
     df0:	29 52       	subi	r18, 0x29	; 41
     df2:	31 09       	sbc	r19, r1
     df4:	28 31       	cpi	r18, 0x18	; 24
     df6:	31 05       	cpc	r19, r1
     df8:	08 f4       	brcc	.+2      	; 0xdfc <irmp_ISR+0x292>
     dfa:	4f c1       	rjmp	.+670    	; 0x109a <irmp_ISR+0x530>
     dfc:	98 ed       	ldi	r25, 0xD8	; 216
     dfe:	98 0f       	add	r25, r24
     e00:	97 31       	cpi	r25, 0x17	; 23
     e02:	50 f4       	brcc	.+20     	; 0xe18 <irmp_ISR+0x2ae>
     e04:	20 91 75 00 	lds	r18, 0x0075	; 0x800075 <irmp_pause_time.2335>
     e08:	30 91 76 00 	lds	r19, 0x0076	; 0x800076 <irmp_pause_time.2335+0x1>
     e0c:	23 51       	subi	r18, 0x13	; 19
     e0e:	31 09       	sbc	r19, r1
     e10:	2d 30       	cpi	r18, 0x0D	; 13
     e12:	31 05       	cpc	r19, r1
     e14:	08 f4       	brcc	.+2      	; 0xe18 <irmp_ISR+0x2ae>
     e16:	44 c1       	rjmp	.+648    	; 0x10a0 <irmp_ISR+0x536>
     e18:	96 ed       	ldi	r25, 0xD6	; 214
     e1a:	98 0f       	add	r25, r24
     e1c:	9d 30       	cpi	r25, 0x0D	; 13
     e1e:	50 f4       	brcc	.+20     	; 0xe34 <irmp_ISR+0x2ca>
     e20:	20 91 75 00 	lds	r18, 0x0075	; 0x800075 <irmp_pause_time.2335>
     e24:	30 91 76 00 	lds	r19, 0x0076	; 0x800076 <irmp_pause_time.2335+0x1>
     e28:	24 51       	subi	r18, 0x14	; 20
     e2a:	31 09       	sbc	r19, r1
     e2c:	28 30       	cpi	r18, 0x08	; 8
     e2e:	31 05       	cpc	r19, r1
     e30:	08 f4       	brcc	.+2      	; 0xe34 <irmp_ISR+0x2ca>
     e32:	39 c1       	rjmp	.+626    	; 0x10a6 <irmp_ISR+0x53c>
     e34:	5f ef       	ldi	r21, 0xFF	; 255
     e36:	58 0f       	add	r21, r24
     e38:	54 30       	cpi	r21, 0x04	; 4
     e3a:	50 f4       	brcc	.+20     	; 0xe50 <irmp_ISR+0x2e6>
     e3c:	20 91 75 00 	lds	r18, 0x0075	; 0x800075 <irmp_pause_time.2335>
     e40:	30 91 76 00 	lds	r19, 0x0076	; 0x800076 <irmp_pause_time.2335+0x1>
     e44:	23 56       	subi	r18, 0x63	; 99
     e46:	31 09       	sbc	r19, r1
     e48:	2a 31       	cpi	r18, 0x1A	; 26
     e4a:	31 05       	cpc	r19, r1
     e4c:	08 f4       	brcc	.+2      	; 0xe50 <irmp_ISR+0x2e6>
     e4e:	2e c1       	rjmp	.+604    	; 0x10ac <irmp_ISR+0x542>
     e50:	94 ef       	ldi	r25, 0xF4	; 244
     e52:	98 0f       	add	r25, r24
     e54:	94 30       	cpi	r25, 0x04	; 4
     e56:	20 f0       	brcs	.+8      	; 0xe60 <irmp_ISR+0x2f6>
     e58:	98 ee       	ldi	r25, 0xE8	; 232
     e5a:	98 0f       	add	r25, r24
     e5c:	97 30       	cpi	r25, 0x07	; 7
     e5e:	38 f5       	brcc	.+78     	; 0xeae <irmp_ISR+0x344>
     e60:	20 91 75 00 	lds	r18, 0x0075	; 0x800075 <irmp_pause_time.2335>
     e64:	30 91 76 00 	lds	r19, 0x0076	; 0x800076 <irmp_pause_time.2335+0x1>
     e68:	b9 01       	movw	r22, r18
     e6a:	6c 50       	subi	r22, 0x0C	; 12
     e6c:	71 09       	sbc	r23, r1
     e6e:	64 30       	cpi	r22, 0x04	; 4
     e70:	71 05       	cpc	r23, r1
     e72:	28 f0       	brcs	.+10     	; 0xe7e <irmp_ISR+0x314>
     e74:	6c 50       	subi	r22, 0x0C	; 12
     e76:	71 09       	sbc	r23, r1
     e78:	67 30       	cpi	r22, 0x07	; 7
     e7a:	71 05       	cpc	r23, r1
     e7c:	c0 f4       	brcc	.+48     	; 0xeae <irmp_ISR+0x344>
     e7e:	30 93 6f 00 	sts	0x006F, r19	; 0x80006f <last_pause.2343+0x1>
     e82:	20 93 6e 00 	sts	0x006E, r18	; 0x80006e <last_pause.2343>
     e86:	80 51       	subi	r24, 0x10	; 16
     e88:	8f 30       	cpi	r24, 0x0F	; 15
     e8a:	28 f0       	brcs	.+10     	; 0xe96 <irmp_ISR+0x32c>
     e8c:	20 51       	subi	r18, 0x10	; 16
     e8e:	31 09       	sbc	r19, r1
     e90:	2f 30       	cpi	r18, 0x0F	; 15
     e92:	31 05       	cpc	r19, r1
     e94:	30 f4       	brcc	.+12     	; 0xea2 <irmp_ISR+0x338>
     e96:	10 92 6d 00 	sts	0x006D, r1	; 0x80006d <last_value.2344>
     e9a:	80 e4       	ldi	r24, 0x40	; 64
     e9c:	80 93 74 00 	sts	0x0074, r24	; 0x800074 <rc5_cmd_bit6.2342>
     ea0:	03 c0       	rjmp	.+6      	; 0xea8 <irmp_ISR+0x33e>
     ea2:	81 e0       	ldi	r24, 0x01	; 1
     ea4:	80 93 6d 00 	sts	0x006D, r24	; 0x80006d <last_value.2344>
     ea8:	6a e2       	ldi	r22, 0x2A	; 42
     eaa:	72 e0       	ldi	r23, 0x02	; 2
     eac:	16 c1       	rjmp	.+556    	; 0x10da <irmp_ISR+0x570>
     eae:	9d ef       	ldi	r25, 0xFD	; 253
     eb0:	98 0f       	add	r25, r24
     eb2:	95 30       	cpi	r25, 0x05	; 5
     eb4:	88 f4       	brcc	.+34     	; 0xed8 <irmp_ISR+0x36e>
     eb6:	20 91 75 00 	lds	r18, 0x0075	; 0x800075 <irmp_pause_time.2335>
     eba:	30 91 76 00 	lds	r19, 0x0076	; 0x800076 <irmp_pause_time.2335+0x1>
     ebe:	b9 01       	movw	r22, r18
     ec0:	67 51       	subi	r22, 0x17	; 23
     ec2:	71 09       	sbc	r23, r1
     ec4:	68 30       	cpi	r22, 0x08	; 8
     ec6:	71 05       	cpc	r23, r1
     ec8:	08 f4       	brcc	.+2      	; 0xecc <irmp_ISR+0x362>
     eca:	f3 c0       	rjmp	.+486    	; 0x10b2 <irmp_ISR+0x548>
     ecc:	29 50       	subi	r18, 0x09	; 9
     ece:	31 09       	sbc	r19, r1
     ed0:	25 30       	cpi	r18, 0x05	; 5
     ed2:	31 05       	cpc	r19, r1
     ed4:	08 f4       	brcc	.+2      	; 0xed8 <irmp_ISR+0x36e>
     ed6:	ed c0       	rjmp	.+474    	; 0x10b2 <irmp_ISR+0x548>
     ed8:	4a ef       	ldi	r20, 0xFA	; 250
     eda:	48 0f       	add	r20, r24
     edc:	45 30       	cpi	r20, 0x05	; 5
     ede:	88 f4       	brcc	.+34     	; 0xf02 <irmp_ISR+0x398>
     ee0:	20 91 75 00 	lds	r18, 0x0075	; 0x800075 <irmp_pause_time.2335>
     ee4:	30 91 76 00 	lds	r19, 0x0076	; 0x800076 <irmp_pause_time.2335+0x1>
     ee8:	b9 01       	movw	r22, r18
     eea:	6c 53       	subi	r22, 0x3C	; 60
     eec:	71 09       	sbc	r23, r1
     eee:	60 31       	cpi	r22, 0x10	; 16
     ef0:	71 05       	cpc	r23, r1
     ef2:	08 f4       	brcc	.+2      	; 0xef6 <irmp_ISR+0x38c>
     ef4:	e1 c0       	rjmp	.+450    	; 0x10b8 <irmp_ISR+0x54e>
     ef6:	2a 51       	subi	r18, 0x1A	; 26
     ef8:	31 09       	sbc	r19, r1
     efa:	29 30       	cpi	r18, 0x09	; 9
     efc:	31 05       	cpc	r19, r1
     efe:	08 f4       	brcc	.+2      	; 0xf02 <irmp_ISR+0x398>
     f00:	db c0       	rjmp	.+438    	; 0x10b8 <irmp_ISR+0x54e>
     f02:	26 ef       	ldi	r18, 0xF6	; 246
     f04:	28 0f       	add	r18, r24
     f06:	2d 30       	cpi	r18, 0x0D	; 13
     f08:	50 f4       	brcc	.+20     	; 0xf1e <irmp_ISR+0x3b4>
     f0a:	20 91 75 00 	lds	r18, 0x0075	; 0x800075 <irmp_pause_time.2335>
     f0e:	30 91 76 00 	lds	r19, 0x0076	; 0x800076 <irmp_pause_time.2335+0x1>
     f12:	2e 50       	subi	r18, 0x0E	; 14
     f14:	31 09       	sbc	r19, r1
     f16:	20 31       	cpi	r18, 0x10	; 16
     f18:	31 05       	cpc	r19, r1
     f1a:	08 f4       	brcc	.+2      	; 0xf1e <irmp_ISR+0x3b4>
     f1c:	d0 c0       	rjmp	.+416    	; 0x10be <irmp_ISR+0x554>
     f1e:	2d ed       	ldi	r18, 0xDD	; 221
     f20:	28 0f       	add	r18, r24
     f22:	2b 30       	cpi	r18, 0x0B	; 11
     f24:	98 f4       	brcc	.+38     	; 0xf4c <irmp_ISR+0x3e2>
     f26:	20 91 75 00 	lds	r18, 0x0075	; 0x800075 <irmp_pause_time.2335>
     f2a:	30 91 76 00 	lds	r19, 0x0076	; 0x800076 <irmp_pause_time.2335+0x1>
     f2e:	2b 50       	subi	r18, 0x0B	; 11
     f30:	31 09       	sbc	r19, r1
     f32:	26 30       	cpi	r18, 0x06	; 6
     f34:	31 05       	cpc	r19, r1
     f36:	50 f4       	brcc	.+20     	; 0xf4c <irmp_ISR+0x3e2>
     f38:	10 92 6f 00 	sts	0x006F, r1	; 0x80006f <last_pause.2343+0x1>
     f3c:	10 92 6e 00 	sts	0x006E, r1	; 0x80006e <last_pause.2343>
     f40:	81 e0       	ldi	r24, 0x01	; 1
     f42:	80 93 6d 00 	sts	0x006D, r24	; 0x80006d <last_value.2344>
     f46:	68 e0       	ldi	r22, 0x08	; 8
     f48:	72 e0       	ldi	r23, 0x02	; 2
     f4a:	c7 c0       	rjmp	.+398    	; 0x10da <irmp_ISR+0x570>
     f4c:	54 30       	cpi	r21, 0x04	; 4
     f4e:	50 f4       	brcc	.+20     	; 0xf64 <irmp_ISR+0x3fa>
     f50:	20 91 75 00 	lds	r18, 0x0075	; 0x800075 <irmp_pause_time.2335>
     f54:	30 91 76 00 	lds	r19, 0x0076	; 0x800076 <irmp_pause_time.2335+0x1>
     f58:	20 53       	subi	r18, 0x30	; 48
     f5a:	31 09       	sbc	r19, r1
     f5c:	2e 30       	cpi	r18, 0x0E	; 14
     f5e:	31 05       	cpc	r19, r1
     f60:	08 f4       	brcc	.+2      	; 0xf64 <irmp_ISR+0x3fa>
     f62:	b0 c0       	rjmp	.+352    	; 0x10c4 <irmp_ISR+0x55a>
     f64:	21 ef       	ldi	r18, 0xF1	; 241
     f66:	28 0f       	add	r18, r24
     f68:	2b 30       	cpi	r18, 0x0B	; 11
     f6a:	50 f4       	brcc	.+20     	; 0xf80 <irmp_ISR+0x416>
     f6c:	20 91 75 00 	lds	r18, 0x0075	; 0x800075 <irmp_pause_time.2335>
     f70:	30 91 76 00 	lds	r19, 0x0076	; 0x800076 <irmp_pause_time.2335+0x1>
     f74:	23 50       	subi	r18, 0x03	; 3
     f76:	31 09       	sbc	r19, r1
     f78:	25 30       	cpi	r18, 0x05	; 5
     f7a:	31 05       	cpc	r19, r1
     f7c:	08 f4       	brcc	.+2      	; 0xf80 <irmp_ISR+0x416>
     f7e:	a5 c0       	rjmp	.+330    	; 0x10ca <irmp_ISR+0x560>
     f80:	2c ef       	ldi	r18, 0xFC	; 252
     f82:	28 0f       	add	r18, r24
     f84:	26 30       	cpi	r18, 0x06	; 6
     f86:	50 f4       	brcc	.+20     	; 0xf9c <irmp_ISR+0x432>
     f88:	20 91 75 00 	lds	r18, 0x0075	; 0x800075 <irmp_pause_time.2335>
     f8c:	30 91 76 00 	lds	r19, 0x0076	; 0x800076 <irmp_pause_time.2335+0x1>
     f90:	2e 50       	subi	r18, 0x0E	; 14
     f92:	31 09       	sbc	r19, r1
     f94:	2b 30       	cpi	r18, 0x0B	; 11
     f96:	31 05       	cpc	r19, r1
     f98:	08 f4       	brcc	.+2      	; 0xf9c <irmp_ISR+0x432>
     f9a:	9a c0       	rjmp	.+308    	; 0x10d0 <irmp_ISR+0x566>
     f9c:	2e ef       	ldi	r18, 0xFE	; 254
     f9e:	28 0f       	add	r18, r24
     fa0:	23 30       	cpi	r18, 0x03	; 3
     fa2:	70 f4       	brcc	.+28     	; 0xfc0 <irmp_ISR+0x456>
     fa4:	20 91 75 00 	lds	r18, 0x0075	; 0x800075 <irmp_pause_time.2335>
     fa8:	30 91 76 00 	lds	r19, 0x0076	; 0x800076 <irmp_pause_time.2335+0x1>
     fac:	29 52       	subi	r18, 0x29	; 41
     fae:	31 09       	sbc	r19, r1
     fb0:	2d 30       	cpi	r18, 0x0D	; 13
     fb2:	31 05       	cpc	r19, r1
     fb4:	28 f4       	brcc	.+10     	; 0xfc0 <irmp_ISR+0x456>
     fb6:	10 92 6d 00 	sts	0x006D, r1	; 0x80006d <last_value.2344>
     fba:	64 ec       	ldi	r22, 0xC4	; 196
     fbc:	71 e0       	ldi	r23, 0x01	; 1
     fbe:	8d c0       	rjmp	.+282    	; 0x10da <irmp_ISR+0x570>
     fc0:	45 30       	cpi	r20, 0x05	; 5
     fc2:	a0 f4       	brcc	.+40     	; 0xfec <irmp_ISR+0x482>
     fc4:	20 91 75 00 	lds	r18, 0x0075	; 0x800075 <irmp_pause_time.2335>
     fc8:	30 91 76 00 	lds	r19, 0x0076	; 0x800076 <irmp_pause_time.2335+0x1>
     fcc:	a9 01       	movw	r20, r18
     fce:	41 52       	subi	r20, 0x21	; 33
     fd0:	51 09       	sbc	r21, r1
     fd2:	41 31       	cpi	r20, 0x11	; 17
     fd4:	51 05       	cpc	r21, r1
     fd6:	50 f4       	brcc	.+20     	; 0xfec <irmp_ISR+0x482>
     fd8:	30 93 6f 00 	sts	0x006F, r19	; 0x80006f <last_pause.2343+0x1>
     fdc:	20 93 6e 00 	sts	0x006E, r18	; 0x80006e <last_pause.2343>
     fe0:	81 e0       	ldi	r24, 0x01	; 1
     fe2:	80 93 6d 00 	sts	0x006D, r24	; 0x80006d <last_value.2344>
     fe6:	63 eb       	ldi	r22, 0xB3	; 179
     fe8:	71 e0       	ldi	r23, 0x01	; 1
     fea:	77 c0       	rjmp	.+238    	; 0x10da <irmp_ISR+0x570>
     fec:	9a 30       	cpi	r25, 0x0A	; 10
     fee:	c8 f4       	brcc	.+50     	; 0x1022 <irmp_ISR+0x4b8>
     ff0:	20 91 75 00 	lds	r18, 0x0075	; 0x800075 <irmp_pause_time.2335>
     ff4:	30 91 76 00 	lds	r19, 0x0076	; 0x800076 <irmp_pause_time.2335+0x1>
     ff8:	a9 01       	movw	r20, r18
     ffa:	47 50       	subi	r20, 0x07	; 7
     ffc:	51 09       	sbc	r21, r1
     ffe:	45 30       	cpi	r20, 0x05	; 5
    1000:	51 05       	cpc	r21, r1
    1002:	28 f0       	brcs	.+10     	; 0x100e <irmp_ISR+0x4a4>
    1004:	47 50       	subi	r20, 0x07	; 7
    1006:	51 09       	sbc	r21, r1
    1008:	49 30       	cpi	r20, 0x09	; 9
    100a:	51 05       	cpc	r21, r1
    100c:	50 f4       	brcc	.+20     	; 0x1022 <irmp_ISR+0x4b8>
    100e:	30 93 6f 00 	sts	0x006F, r19	; 0x80006f <last_pause.2343+0x1>
    1012:	20 93 6e 00 	sts	0x006E, r18	; 0x80006e <last_pause.2343>
    1016:	81 e0       	ldi	r24, 0x01	; 1
    1018:	80 93 6d 00 	sts	0x006D, r24	; 0x80006d <last_value.2344>
    101c:	62 ea       	ldi	r22, 0xA2	; 162
    101e:	71 e0       	ldi	r23, 0x01	; 1
    1020:	5c c0       	rjmp	.+184    	; 0x10da <irmp_ISR+0x570>
    1022:	89 50       	subi	r24, 0x09	; 9
    1024:	88 30       	cpi	r24, 0x08	; 8
    1026:	50 f4       	brcc	.+20     	; 0x103c <irmp_ISR+0x4d2>
    1028:	20 91 75 00 	lds	r18, 0x0075	; 0x800075 <irmp_pause_time.2335>
    102c:	30 91 76 00 	lds	r19, 0x0076	; 0x800076 <irmp_pause_time.2335+0x1>
    1030:	2c 50       	subi	r18, 0x0C	; 12
    1032:	31 09       	sbc	r19, r1
    1034:	29 30       	cpi	r18, 0x09	; 9
    1036:	31 05       	cpc	r19, r1
    1038:	08 f4       	brcc	.+2      	; 0x103c <irmp_ISR+0x4d2>
    103a:	4d c0       	rjmp	.+154    	; 0x10d6 <irmp_ISR+0x56c>
    103c:	94 30       	cpi	r25, 0x04	; 4
    103e:	88 f4       	brcc	.+34     	; 0x1062 <irmp_ISR+0x4f8>
    1040:	80 91 75 00 	lds	r24, 0x0075	; 0x800075 <irmp_pause_time.2335>
    1044:	90 91 76 00 	lds	r25, 0x0076	; 0x800076 <irmp_pause_time.2335+0x1>
    1048:	04 97       	sbiw	r24, 0x04	; 4
    104a:	04 97       	sbiw	r24, 0x04	; 4
    104c:	50 f4       	brcc	.+20     	; 0x1062 <irmp_ISR+0x4f8>
    104e:	10 92 6f 00 	sts	0x006F, r1	; 0x80006f <last_pause.2343+0x1>
    1052:	10 92 6e 00 	sts	0x006E, r1	; 0x80006e <last_pause.2343>
    1056:	81 e0       	ldi	r24, 0x01	; 1
    1058:	80 93 6d 00 	sts	0x006D, r24	; 0x80006d <last_value.2344>
    105c:	6d e4       	ldi	r22, 0x4D	; 77
    105e:	71 e0       	ldi	r23, 0x01	; 1
    1060:	3c c0       	rjmp	.+120    	; 0x10da <irmp_ISR+0x570>
    1062:	10 92 7a 00 	sts	0x007A, r1	; 0x80007a <irmp_start_bit_detected.2331>
    1066:	10 92 9b 00 	sts	0x009B, r1	; 0x80009b <irmp_param>
    106a:	60 e0       	ldi	r22, 0x00	; 0
    106c:	70 e0       	ldi	r23, 0x00	; 0
    106e:	35 c0       	rjmp	.+106    	; 0x10da <irmp_ISR+0x570>
    1070:	64 ed       	ldi	r22, 0xD4	; 212
    1072:	72 e0       	ldi	r23, 0x02	; 2
    1074:	32 c0       	rjmp	.+100    	; 0x10da <irmp_ISR+0x570>
    1076:	61 ea       	ldi	r22, 0xA1	; 161
    1078:	72 e0       	ldi	r23, 0x02	; 2
    107a:	2f c0       	rjmp	.+94     	; 0x10da <irmp_ISR+0x570>
    107c:	63 ec       	ldi	r22, 0xC3	; 195
    107e:	72 e0       	ldi	r23, 0x02	; 2
    1080:	2c c0       	rjmp	.+88     	; 0x10da <irmp_ISR+0x570>
    1082:	6f e7       	ldi	r22, 0x7F	; 127
    1084:	72 e0       	ldi	r23, 0x02	; 2
    1086:	29 c0       	rjmp	.+82     	; 0x10da <irmp_ISR+0x570>
    1088:	6c e3       	ldi	r22, 0x3C	; 60
    108a:	71 e0       	ldi	r23, 0x01	; 1
    108c:	26 c0       	rjmp	.+76     	; 0x10da <irmp_ISR+0x570>
    108e:	61 e9       	ldi	r22, 0x91	; 145
    1090:	71 e0       	ldi	r23, 0x01	; 1
    1092:	23 c0       	rjmp	.+70     	; 0x10da <irmp_ISR+0x570>
    1094:	60 e9       	ldi	r22, 0x90	; 144
    1096:	72 e0       	ldi	r23, 0x02	; 2
    1098:	20 c0       	rjmp	.+64     	; 0x10da <irmp_ISR+0x570>
    109a:	6e e6       	ldi	r22, 0x6E	; 110
    109c:	72 e0       	ldi	r23, 0x02	; 2
    109e:	1d c0       	rjmp	.+58     	; 0x10da <irmp_ISR+0x570>
    10a0:	6d e5       	ldi	r22, 0x5D	; 93
    10a2:	72 e0       	ldi	r23, 0x02	; 2
    10a4:	1a c0       	rjmp	.+52     	; 0x10da <irmp_ISR+0x570>
    10a6:	6c e4       	ldi	r22, 0x4C	; 76
    10a8:	72 e0       	ldi	r23, 0x02	; 2
    10aa:	17 c0       	rjmp	.+46     	; 0x10da <irmp_ISR+0x570>
    10ac:	6b e3       	ldi	r22, 0x3B	; 59
    10ae:	72 e0       	ldi	r23, 0x02	; 2
    10b0:	14 c0       	rjmp	.+40     	; 0x10da <irmp_ISR+0x570>
    10b2:	69 e1       	ldi	r22, 0x19	; 25
    10b4:	72 e0       	ldi	r23, 0x02	; 2
    10b6:	11 c0       	rjmp	.+34     	; 0x10da <irmp_ISR+0x570>
    10b8:	6f e6       	ldi	r22, 0x6F	; 111
    10ba:	71 e0       	ldi	r23, 0x01	; 1
    10bc:	0e c0       	rjmp	.+28     	; 0x10da <irmp_ISR+0x570>
    10be:	6e e5       	ldi	r22, 0x5E	; 94
    10c0:	71 e0       	ldi	r23, 0x01	; 1
    10c2:	0b c0       	rjmp	.+22     	; 0x10da <irmp_ISR+0x570>
    10c4:	67 ef       	ldi	r22, 0xF7	; 247
    10c6:	71 e0       	ldi	r23, 0x01	; 1
    10c8:	08 c0       	rjmp	.+16     	; 0x10da <irmp_ISR+0x570>
    10ca:	66 ee       	ldi	r22, 0xE6	; 230
    10cc:	71 e0       	ldi	r23, 0x01	; 1
    10ce:	05 c0       	rjmp	.+10     	; 0x10da <irmp_ISR+0x570>
    10d0:	65 ed       	ldi	r22, 0xD5	; 213
    10d2:	71 e0       	ldi	r23, 0x01	; 1
    10d4:	02 c0       	rjmp	.+4      	; 0x10da <irmp_ISR+0x570>
    10d6:	60 e8       	ldi	r22, 0x80	; 128
    10d8:	71 e0       	ldi	r23, 0x01	; 1
    10da:	80 91 7a 00 	lds	r24, 0x007A	; 0x80007a <irmp_start_bit_detected.2331>
    10de:	88 23       	and	r24, r24
    10e0:	31 f0       	breq	.+12     	; 0x10ee <irmp_ISR+0x584>
    10e2:	41 e1       	ldi	r20, 0x11	; 17
    10e4:	50 e0       	ldi	r21, 0x00	; 0
    10e6:	8b e9       	ldi	r24, 0x9B	; 155
    10e8:	90 e0       	ldi	r25, 0x00	; 0
    10ea:	0e 94 d9 1b 	call	0x37b2	; 0x37b2 <memcpy_P>
    10ee:	80 91 ab 00 	lds	r24, 0x00AB	; 0x8000ab <irmp_param+0x10>
    10f2:	90 91 9b 00 	lds	r25, 0x009B	; 0x80009b <irmp_param>
    10f6:	80 ff       	sbrs	r24, 0
    10f8:	1f c0       	rjmp	.+62     	; 0x1138 <irmp_ISR+0x5ce>
    10fa:	97 31       	cpi	r25, 0x17	; 23
    10fc:	a1 f1       	breq	.+104    	; 0x1166 <irmp_ISR+0x5fc>
    10fe:	99 30       	cpi	r25, 0x09	; 9
    1100:	91 f1       	breq	.+100    	; 0x1166 <irmp_ISR+0x5fc>
    1102:	20 91 9d 00 	lds	r18, 0x009D	; 0x80009d <irmp_param+0x2>
    1106:	40 91 75 00 	lds	r20, 0x0075	; 0x800075 <irmp_pause_time.2335>
    110a:	50 91 76 00 	lds	r21, 0x0076	; 0x800076 <irmp_pause_time.2335+0x1>
    110e:	30 e0       	ldi	r19, 0x00	; 0
    1110:	24 17       	cp	r18, r20
    1112:	35 07       	cpc	r19, r21
    1114:	50 f4       	brcc	.+20     	; 0x112a <irmp_ISR+0x5c0>
    1116:	22 0f       	add	r18, r18
    1118:	33 1f       	adc	r19, r19
    111a:	24 17       	cp	r18, r20
    111c:	35 07       	cpc	r19, r21
    111e:	28 f0       	brcs	.+10     	; 0x112a <irmp_ISR+0x5c0>
    1120:	86 95       	lsr	r24
    1122:	81 70       	andi	r24, 0x01	; 1
    1124:	91 e0       	ldi	r25, 0x01	; 1
    1126:	89 27       	eor	r24, r25
    1128:	1c c0       	rjmp	.+56     	; 0x1162 <irmp_ISR+0x5f8>
    112a:	90 91 6d 00 	lds	r25, 0x006D	; 0x80006d <last_value.2344>
    112e:	91 11       	cpse	r25, r1
    1130:	1a c0       	rjmp	.+52     	; 0x1166 <irmp_ISR+0x5fc>
    1132:	86 95       	lsr	r24
    1134:	81 70       	andi	r24, 0x01	; 1
    1136:	15 c0       	rjmp	.+42     	; 0x1162 <irmp_ISR+0x5f8>
    1138:	98 30       	cpi	r25, 0x08	; 8
    113a:	49 f4       	brne	.+18     	; 0x114e <irmp_ISR+0x5e4>
    113c:	80 91 75 00 	lds	r24, 0x0075	; 0x800075 <irmp_pause_time.2335>
    1140:	90 91 76 00 	lds	r25, 0x0076	; 0x800076 <irmp_pause_time.2335+0x1>
    1144:	47 97       	sbiw	r24, 0x17	; 23
    1146:	08 97       	sbiw	r24, 0x08	; 8
    1148:	58 f4       	brcc	.+22     	; 0x1160 <irmp_ISR+0x5f6>
    114a:	81 e0       	ldi	r24, 0x01	; 1
    114c:	0a c0       	rjmp	.+20     	; 0x1162 <irmp_ISR+0x5f8>
    114e:	9e 31       	cpi	r25, 0x1E	; 30
    1150:	51 f4       	brne	.+20     	; 0x1166 <irmp_ISR+0x5fc>
    1152:	80 91 75 00 	lds	r24, 0x0075	; 0x800075 <irmp_pause_time.2335>
    1156:	90 91 76 00 	lds	r25, 0x0076	; 0x800076 <irmp_pause_time.2335+0x1>
    115a:	cc 97       	sbiw	r24, 0x3c	; 60
    115c:	40 97       	sbiw	r24, 0x10	; 16
    115e:	a8 f3       	brcs	.-22     	; 0x114a <irmp_ISR+0x5e0>
    1160:	80 e0       	ldi	r24, 0x00	; 0
    1162:	0e 94 4d 03 	call	0x69a	; 0x69a <irmp_store_bit>
    1166:	81 e0       	ldi	r24, 0x01	; 1
    1168:	80 93 79 00 	sts	0x0079, r24	; 0x800079 <irmp_pulse_time.2334>
    116c:	10 92 76 00 	sts	0x0076, r1	; 0x800076 <irmp_pause_time.2335+0x1>
    1170:	10 92 75 00 	sts	0x0075, r1	; 0x800075 <irmp_pause_time.2335>
    1174:	10 92 78 00 	sts	0x0078, r1	; 0x800078 <wait_for_start_space.2333>
    1178:	84 c1       	rjmp	.+776    	; 0x1482 <irmp_ISR+0x918>
    117a:	80 91 77 00 	lds	r24, 0x0077	; 0x800077 <wait_for_space.2332>
    117e:	88 23       	and	r24, r24
    1180:	09 f4       	brne	.+2      	; 0x1184 <irmp_ISR+0x61a>
    1182:	6e c1       	rjmp	.+732    	; 0x1460 <irmp_ISR+0x8f6>
    1184:	cc 23       	and	r28, r28
    1186:	09 f4       	brne	.+2      	; 0x118a <irmp_ISR+0x620>
    1188:	ef c1       	rjmp	.+990    	; 0x1568 <irmp_ISR+0x9fe>
    118a:	20 91 75 00 	lds	r18, 0x0075	; 0x800075 <irmp_pause_time.2335>
    118e:	30 91 76 00 	lds	r19, 0x0076	; 0x800076 <irmp_pause_time.2335+0x1>
    1192:	2f 5f       	subi	r18, 0xFF	; 255
    1194:	3f 4f       	sbci	r19, 0xFF	; 255
    1196:	30 93 76 00 	sts	0x0076, r19	; 0x800076 <irmp_pause_time.2335+0x1>
    119a:	20 93 75 00 	sts	0x0075, r18	; 0x800075 <irmp_pause_time.2335>
    119e:	90 91 a8 00 	lds	r25, 0x00A8	; 0x8000a8 <irmp_param+0xd>
    11a2:	80 91 ac 00 	lds	r24, 0x00AC	; 0x8000ac <irmp_bit>
    11a6:	98 13       	cpse	r25, r24
    11a8:	0c c0       	rjmp	.+24     	; 0x11c2 <irmp_ISR+0x658>
    11aa:	40 91 a9 00 	lds	r20, 0x00A9	; 0x8000a9 <irmp_param+0xe>
    11ae:	41 30       	cpi	r20, 0x01	; 1
    11b0:	41 f4       	brne	.+16     	; 0x11c2 <irmp_ISR+0x658>
    11b2:	40 91 ab 00 	lds	r20, 0x00AB	; 0x8000ab <irmp_param+0x10>
    11b6:	40 ff       	sbrs	r20, 0
    11b8:	69 c1       	rjmp	.+722    	; 0x148c <irmp_ISR+0x922>
    11ba:	21 15       	cp	r18, r1
    11bc:	31 05       	cpc	r19, r1
    11be:	09 f0       	breq	.+2      	; 0x11c2 <irmp_ISR+0x658>
    11c0:	83 c1       	rjmp	.+774    	; 0x14c8 <irmp_ISR+0x95e>
    11c2:	40 91 9b 00 	lds	r20, 0x009B	; 0x80009b <irmp_param>
    11c6:	41 30       	cpi	r20, 0x01	; 1
    11c8:	41 f5       	brne	.+80     	; 0x121a <irmp_ISR+0x6b0>
    11ca:	2c 30       	cpi	r18, 0x0C	; 12
    11cc:	31 05       	cpc	r19, r1
    11ce:	08 f4       	brcc	.+2      	; 0x11d2 <irmp_ISR+0x668>
    11d0:	c3 c0       	rjmp	.+390    	; 0x1358 <irmp_ISR+0x7ee>
    11d2:	8b 30       	cpi	r24, 0x0B	; 11
    11d4:	08 f4       	brcc	.+2      	; 0x11d8 <irmp_ISR+0x66e>
    11d6:	c0 c0       	rjmp	.+384    	; 0x1358 <irmp_ISR+0x7ee>
    11d8:	91 e0       	ldi	r25, 0x01	; 1
    11da:	98 0f       	add	r25, r24
    11dc:	90 93 a8 00 	sts	0x00A8, r25	; 0x8000a8 <irmp_param+0xd>
    11e0:	28 2f       	mov	r18, r24
    11e2:	30 e0       	ldi	r19, 0x00	; 0
    11e4:	2b 50       	subi	r18, 0x0B	; 11
    11e6:	31 09       	sbc	r19, r1
    11e8:	32 2f       	mov	r19, r18
    11ea:	22 27       	eor	r18, r18
    11ec:	40 91 90 00 	lds	r20, 0x0090	; 0x800090 <irmp_tmp_address>
    11f0:	50 91 91 00 	lds	r21, 0x0091	; 0x800091 <irmp_tmp_address+0x1>
    11f4:	24 2b       	or	r18, r20
    11f6:	35 2b       	or	r19, r21
    11f8:	30 93 91 00 	sts	0x0091, r19	; 0x800091 <irmp_tmp_address+0x1>
    11fc:	20 93 90 00 	sts	0x0090, r18	; 0x800090 <irmp_tmp_address>
    1200:	90 91 a6 00 	lds	r25, 0x00A6	; 0x8000a6 <irmp_param+0xb>
    1204:	89 0f       	add	r24, r25
    1206:	8f 5f       	subi	r24, 0xFF	; 255
    1208:	80 93 a7 00 	sts	0x00A7, r24	; 0x8000a7 <irmp_param+0xc>
    120c:	8a e0       	ldi	r24, 0x0A	; 10
    120e:	90 e0       	ldi	r25, 0x00	; 0
    1210:	90 93 76 00 	sts	0x0076, r25	; 0x800076 <irmp_pause_time.2335+0x1>
    1214:	80 93 75 00 	sts	0x0075, r24	; 0x800075 <irmp_pause_time.2335>
    1218:	a7 c1       	rjmp	.+846    	; 0x1568 <irmp_ISR+0x9fe>
    121a:	4f 30       	cpi	r20, 0x0F	; 15
    121c:	09 f0       	breq	.+2      	; 0x1220 <irmp_ISR+0x6b6>
    121e:	58 c0       	rjmp	.+176    	; 0x12d0 <irmp_ISR+0x766>
    1220:	50 91 a9 00 	lds	r21, 0x00A9	; 0x8000a9 <irmp_param+0xe>
    1224:	51 11       	cpse	r21, r1
    1226:	98 c0       	rjmp	.+304    	; 0x1358 <irmp_ISR+0x7ee>
    1228:	26 32       	cpi	r18, 0x26	; 38
    122a:	31 05       	cpc	r19, r1
    122c:	18 f1       	brcs	.+70     	; 0x1274 <irmp_ISR+0x70a>
    122e:	9b ef       	ldi	r25, 0xFB	; 251
    1230:	98 0f       	add	r25, r24
    1232:	92 30       	cpi	r25, 0x02	; 2
    1234:	f8 f4       	brcc	.+62     	; 0x1274 <irmp_ISR+0x70a>
    1236:	81 e0       	ldi	r24, 0x01	; 1
    1238:	80 93 a9 00 	sts	0x00A9, r24	; 0x8000a9 <irmp_param+0xe>
    123c:	88 e1       	ldi	r24, 0x18	; 24
    123e:	80 93 9b 00 	sts	0x009B, r24	; 0x80009b <irmp_param>
    1242:	87 e0       	ldi	r24, 0x07	; 7
    1244:	80 93 a8 00 	sts	0x00A8, r24	; 0x8000a8 <irmp_param+0xd>
    1248:	10 92 a4 00 	sts	0x00A4, r1	; 0x8000a4 <irmp_param+0x9>
    124c:	10 92 a5 00 	sts	0x00A5, r1	; 0x8000a5 <irmp_param+0xa>
    1250:	10 92 a6 00 	sts	0x00A6, r1	; 0x8000a6 <irmp_param+0xb>
    1254:	80 93 a7 00 	sts	0x00A7, r24	; 0x8000a7 <irmp_param+0xc>
    1258:	80 91 8e 00 	lds	r24, 0x008E	; 0x80008e <irmp_tmp_command>
    125c:	90 91 8f 00 	lds	r25, 0x008F	; 0x80008f <irmp_tmp_command+0x1>
    1260:	88 0f       	add	r24, r24
    1262:	99 1f       	adc	r25, r25
    1264:	20 91 ad 00 	lds	r18, 0x00AD	; 0x8000ad <first_bit>
    1268:	82 2b       	or	r24, r18
    126a:	90 93 8f 00 	sts	0x008F, r25	; 0x80008f <irmp_tmp_command+0x1>
    126e:	80 93 8e 00 	sts	0x008E, r24	; 0x80008e <irmp_tmp_command>
    1272:	7a c1       	rjmp	.+756    	; 0x1568 <irmp_ISR+0x9fe>
    1274:	40 91 9f 00 	lds	r20, 0x009F	; 0x80009f <irmp_param+0x4>
    1278:	50 e0       	ldi	r21, 0x00	; 0
    127a:	44 0f       	add	r20, r20
    127c:	55 1f       	adc	r21, r21
    127e:	24 17       	cp	r18, r20
    1280:	35 07       	cpc	r19, r21
    1282:	28 f0       	brcs	.+10     	; 0x128e <irmp_ISR+0x724>
    1284:	88 30       	cpi	r24, 0x08	; 8
    1286:	08 f4       	brcc	.+2      	; 0x128a <irmp_ISR+0x720>
    1288:	fc c0       	rjmp	.+504    	; 0x1482 <irmp_ISR+0x918>
    128a:	8a e0       	ldi	r24, 0x0A	; 10
    128c:	34 c0       	rjmp	.+104    	; 0x12f6 <irmp_ISR+0x78c>
    128e:	8a 30       	cpi	r24, 0x0A	; 10
    1290:	08 f4       	brcc	.+2      	; 0x1294 <irmp_ISR+0x72a>
    1292:	1c c1       	rjmp	.+568    	; 0x14cc <irmp_ISR+0x962>
    1294:	80 e1       	ldi	r24, 0x10	; 16
    1296:	80 93 9b 00 	sts	0x009B, r24	; 0x80009b <irmp_param>
    129a:	89 e0       	ldi	r24, 0x09	; 9
    129c:	80 93 a4 00 	sts	0x00A4, r24	; 0x8000a4 <irmp_param+0x9>
    12a0:	91 e1       	ldi	r25, 0x11	; 17
    12a2:	90 93 a5 00 	sts	0x00A5, r25	; 0x8000a5 <irmp_param+0xa>
    12a6:	91 e0       	ldi	r25, 0x01	; 1
    12a8:	90 93 a6 00 	sts	0x00A6, r25	; 0x8000a6 <irmp_param+0xb>
    12ac:	80 93 a7 00 	sts	0x00A7, r24	; 0x8000a7 <irmp_param+0xc>
    12b0:	80 91 8e 00 	lds	r24, 0x008E	; 0x80008e <irmp_tmp_command>
    12b4:	90 91 8f 00 	lds	r25, 0x008F	; 0x80008f <irmp_tmp_command+0x1>
    12b8:	9c 01       	movw	r18, r24
    12ba:	22 27       	eor	r18, r18
    12bc:	33 70       	andi	r19, 0x03	; 3
    12be:	23 2b       	or	r18, r19
    12c0:	09 f4       	brne	.+2      	; 0x12c4 <irmp_ISR+0x75a>
    12c2:	04 c1       	rjmp	.+520    	; 0x14cc <irmp_ISR+0x962>
    12c4:	90 93 90 00 	sts	0x0090, r25	; 0x800090 <irmp_tmp_address>
    12c8:	10 92 91 00 	sts	0x0091, r1	; 0x800091 <irmp_tmp_address+0x1>
    12cc:	99 27       	eor	r25, r25
    12ce:	ab c0       	rjmp	.+342    	; 0x1426 <irmp_ISR+0x8bc>
    12d0:	47 31       	cpi	r20, 0x17	; 23
    12d2:	09 f0       	breq	.+2      	; 0x12d6 <irmp_ISR+0x76c>
    12d4:	41 c0       	rjmp	.+130    	; 0x1358 <irmp_ISR+0x7ee>
    12d6:	50 91 a9 00 	lds	r21, 0x00A9	; 0x8000a9 <irmp_param+0xe>
    12da:	51 11       	cpse	r21, r1
    12dc:	3d c0       	rjmp	.+122    	; 0x1358 <irmp_ISR+0x7ee>
    12de:	40 91 9f 00 	lds	r20, 0x009F	; 0x80009f <irmp_param+0x4>
    12e2:	50 e0       	ldi	r21, 0x00	; 0
    12e4:	44 0f       	add	r20, r20
    12e6:	55 1f       	adc	r21, r21
    12e8:	24 17       	cp	r18, r20
    12ea:	35 07       	cpc	r19, r21
    12ec:	38 f0       	brcs	.+14     	; 0x12fc <irmp_ISR+0x792>
    12ee:	8f 30       	cpi	r24, 0x0F	; 15
    12f0:	08 f4       	brcc	.+2      	; 0x12f4 <irmp_ISR+0x78a>
    12f2:	c7 c0       	rjmp	.+398    	; 0x1482 <irmp_ISR+0x918>
    12f4:	81 e1       	ldi	r24, 0x11	; 17
    12f6:	80 93 a8 00 	sts	0x00A8, r24	; 0x8000a8 <irmp_param+0xd>
    12fa:	47 c0       	rjmp	.+142    	; 0x138a <irmp_ISR+0x820>
    12fc:	81 31       	cpi	r24, 0x11	; 17
    12fe:	08 f4       	brcc	.+2      	; 0x1302 <irmp_ISR+0x798>
    1300:	e5 c0       	rjmp	.+458    	; 0x14cc <irmp_ISR+0x962>
    1302:	81 e1       	ldi	r24, 0x11	; 17
    1304:	80 93 9b 00 	sts	0x009B, r24	; 0x80009b <irmp_param>
    1308:	10 92 a4 00 	sts	0x00A4, r1	; 0x8000a4 <irmp_param+0x9>
    130c:	8b e0       	ldi	r24, 0x0B	; 11
    130e:	80 93 a5 00 	sts	0x00A5, r24	; 0x8000a5 <irmp_param+0xa>
    1312:	80 93 a6 00 	sts	0x00A6, r24	; 0x8000a6 <irmp_param+0xb>
    1316:	86 e1       	ldi	r24, 0x16	; 22
    1318:	80 93 a7 00 	sts	0x00A7, r24	; 0x8000a7 <irmp_param+0xc>
    131c:	80 91 8e 00 	lds	r24, 0x008E	; 0x80008e <irmp_tmp_command>
    1320:	90 91 8f 00 	lds	r25, 0x008F	; 0x80008f <irmp_tmp_command+0x1>
    1324:	20 91 90 00 	lds	r18, 0x0090	; 0x800090 <irmp_tmp_address>
    1328:	30 91 91 00 	lds	r19, 0x0091	; 0x800091 <irmp_tmp_address+0x1>
    132c:	22 0f       	add	r18, r18
    132e:	33 1f       	adc	r19, r19
    1330:	22 0f       	add	r18, r18
    1332:	33 1f       	adc	r19, r19
    1334:	ac 01       	movw	r20, r24
    1336:	c6 e0       	ldi	r28, 0x06	; 6
    1338:	56 95       	lsr	r21
    133a:	47 95       	ror	r20
    133c:	ca 95       	dec	r28
    133e:	e1 f7       	brne	.-8      	; 0x1338 <irmp_ISR+0x7ce>
    1340:	24 2b       	or	r18, r20
    1342:	35 2b       	or	r19, r21
    1344:	30 93 91 00 	sts	0x0091, r19	; 0x800091 <irmp_tmp_address+0x1>
    1348:	20 93 90 00 	sts	0x0090, r18	; 0x800090 <irmp_tmp_address>
    134c:	8f 73       	andi	r24, 0x3F	; 63
    134e:	99 27       	eor	r25, r25
    1350:	20 91 6d 00 	lds	r18, 0x006D	; 0x80006d <last_value.2344>
    1354:	82 2b       	or	r24, r18
    1356:	67 c0       	rjmp	.+206    	; 0x1426 <irmp_ISR+0x8bc>
    1358:	50 91 ab 00 	lds	r21, 0x00AB	; 0x8000ab <irmp_param+0x10>
    135c:	50 ff       	sbrs	r21, 0
    135e:	19 c0       	rjmp	.+50     	; 0x1392 <irmp_ISR+0x828>
    1360:	60 91 9f 00 	lds	r22, 0x009F	; 0x80009f <irmp_param+0x4>
    1364:	70 e0       	ldi	r23, 0x00	; 0
    1366:	66 0f       	add	r22, r22
    1368:	77 1f       	adc	r23, r23
    136a:	26 17       	cp	r18, r22
    136c:	37 07       	cpc	r19, r23
    136e:	88 f0       	brcs	.+34     	; 0x1392 <irmp_ISR+0x828>
    1370:	e8 2f       	mov	r30, r24
    1372:	f0 e0       	ldi	r31, 0x00	; 0
    1374:	69 2f       	mov	r22, r25
    1376:	70 e0       	ldi	r23, 0x00	; 0
    1378:	62 50       	subi	r22, 0x02	; 2
    137a:	71 09       	sbc	r23, r1
    137c:	e6 17       	cp	r30, r22
    137e:	f7 07       	cpc	r31, r23
    1380:	44 f0       	brlt	.+16     	; 0x1392 <irmp_ISR+0x828>
    1382:	50 91 a9 00 	lds	r21, 0x00A9	; 0x8000a9 <irmp_param+0xe>
    1386:	51 11       	cpse	r21, r1
    1388:	04 c0       	rjmp	.+8      	; 0x1392 <irmp_ISR+0x828>
    138a:	81 e0       	ldi	r24, 0x01	; 1
    138c:	80 93 a9 00 	sts	0x00A9, r24	; 0x8000a9 <irmp_param+0xe>
    1390:	eb c0       	rjmp	.+470    	; 0x1568 <irmp_ISR+0x9fe>
    1392:	2a 3e       	cpi	r18, 0xEA	; 234
    1394:	31 05       	cpc	r19, r1
    1396:	08 f4       	brcc	.+2      	; 0x139a <irmp_ISR+0x830>
    1398:	99 c0       	rjmp	.+306    	; 0x14cc <irmp_ISR+0x962>
    139a:	68 2f       	mov	r22, r24
    139c:	70 e0       	ldi	r23, 0x00	; 0
    139e:	29 2f       	mov	r18, r25
    13a0:	30 e0       	ldi	r19, 0x00	; 0
    13a2:	21 50       	subi	r18, 0x01	; 1
    13a4:	31 09       	sbc	r19, r1
    13a6:	62 17       	cp	r22, r18
    13a8:	73 07       	cpc	r23, r19
    13aa:	41 f4       	brne	.+16     	; 0x13bc <irmp_ISR+0x852>
    13ac:	90 91 a9 00 	lds	r25, 0x00A9	; 0x8000a9 <irmp_param+0xe>
    13b0:	91 11       	cpse	r25, r1
    13b2:	04 c0       	rjmp	.+8      	; 0x13bc <irmp_ISR+0x852>
    13b4:	8f 5f       	subi	r24, 0xFF	; 255
    13b6:	80 93 ac 00 	sts	0x00AC, r24	; 0x8000ac <irmp_bit>
    13ba:	88 c0       	rjmp	.+272    	; 0x14cc <irmp_ISR+0x962>
    13bc:	42 30       	cpi	r20, 0x02	; 2
    13be:	09 f4       	brne	.+2      	; 0x13c2 <irmp_ISR+0x858>
    13c0:	8d c2       	rjmp	.+1306   	; 0x18dc <irmp_ISR+0xd72>
    13c2:	4c 31       	cpi	r20, 0x1C	; 28
    13c4:	a9 f5       	brne	.+106    	; 0x1430 <irmp_ISR+0x8c6>
    13c6:	88 23       	and	r24, r24
    13c8:	09 f4       	brne	.+2      	; 0x13cc <irmp_ISR+0x862>
    13ca:	8a c2       	rjmp	.+1300   	; 0x18e0 <irmp_ISR+0xd76>
    13cc:	80 32       	cpi	r24, 0x20	; 32
    13ce:	09 f0       	breq	.+2      	; 0x13d2 <irmp_ISR+0x868>
    13d0:	b3 c2       	rjmp	.+1382   	; 0x1938 <irmp_ISR+0xdce>
    13d2:	91 e0       	ldi	r25, 0x01	; 1
    13d4:	90 93 a9 00 	sts	0x00A9, r25	; 0x8000a9 <irmp_param+0xe>
    13d8:	92 e0       	ldi	r25, 0x02	; 2
    13da:	90 93 9b 00 	sts	0x009B, r25	; 0x80009b <irmp_param>
    13de:	80 93 a8 00 	sts	0x00A8, r24	; 0x8000a8 <irmp_param+0xd>
    13e2:	80 91 8c 00 	lds	r24, 0x008C	; 0x80008c <irmp_tmp_address2>
    13e6:	90 91 8d 00 	lds	r25, 0x008D	; 0x80008d <irmp_tmp_address2+0x1>
    13ea:	9c 01       	movw	r18, r24
    13ec:	32 2f       	mov	r19, r18
    13ee:	22 27       	eor	r18, r18
    13f0:	32 95       	swap	r19
    13f2:	33 0f       	add	r19, r19
    13f4:	30 7e       	andi	r19, 0xE0	; 224
    13f6:	40 91 90 00 	lds	r20, 0x0090	; 0x800090 <irmp_tmp_address>
    13fa:	50 91 91 00 	lds	r21, 0x0091	; 0x800091 <irmp_tmp_address+0x1>
    13fe:	24 2b       	or	r18, r20
    1400:	35 2b       	or	r19, r21
    1402:	30 93 91 00 	sts	0x0091, r19	; 0x800091 <irmp_tmp_address+0x1>
    1406:	20 93 90 00 	sts	0x0090, r18	; 0x800090 <irmp_tmp_address>
    140a:	40 91 8e 00 	lds	r20, 0x008E	; 0x80008e <irmp_tmp_command>
    140e:	20 e0       	ldi	r18, 0x00	; 0
    1410:	30 e0       	ldi	r19, 0x00	; 0
    1412:	34 2f       	mov	r19, r20
    1414:	33 0f       	add	r19, r19
    1416:	33 0f       	add	r19, r19
    1418:	e3 e0       	ldi	r30, 0x03	; 3
    141a:	96 95       	lsr	r25
    141c:	87 95       	ror	r24
    141e:	ea 95       	dec	r30
    1420:	e1 f7       	brne	.-8      	; 0x141a <irmp_ISR+0x8b0>
    1422:	82 2b       	or	r24, r18
    1424:	93 2b       	or	r25, r19
    1426:	90 93 8f 00 	sts	0x008F, r25	; 0x80008f <irmp_tmp_command+0x1>
    142a:	80 93 8e 00 	sts	0x008E, r24	; 0x80008e <irmp_tmp_command>
    142e:	4e c0       	rjmp	.+156    	; 0x14cc <irmp_ISR+0x962>
    1430:	49 32       	cpi	r20, 0x29	; 41
    1432:	49 f0       	breq	.+18     	; 0x1446 <irmp_ISR+0x8dc>
    1434:	10 92 7a 00 	sts	0x007A, r1	; 0x80007a <irmp_start_bit_detected.2331>
    1438:	10 92 79 00 	sts	0x0079, r1	; 0x800079 <irmp_pulse_time.2334>
    143c:	10 92 76 00 	sts	0x0076, r1	; 0x800076 <irmp_pause_time.2335+0x1>
    1440:	10 92 75 00 	sts	0x0075, r1	; 0x800075 <irmp_pause_time.2335>
    1444:	8c c0       	rjmp	.+280    	; 0x155e <irmp_ISR+0x9f4>
    1446:	80 32       	cpi	r24, 0x20	; 32
    1448:	a9 f7       	brne	.-22     	; 0x1434 <irmp_ISR+0x8ca>
    144a:	9a e0       	ldi	r25, 0x0A	; 10
    144c:	90 93 9b 00 	sts	0x009B, r25	; 0x80009b <irmp_param>
    1450:	90 e1       	ldi	r25, 0x10	; 16
    1452:	90 93 a6 00 	sts	0x00A6, r25	; 0x8000a6 <irmp_param+0xb>
    1456:	80 93 a7 00 	sts	0x00A7, r24	; 0x8000a7 <irmp_param+0xc>
    145a:	80 93 a8 00 	sts	0x00A8, r24	; 0x8000a8 <irmp_param+0xd>
    145e:	36 c0       	rjmp	.+108    	; 0x14cc <irmp_ISR+0x962>
    1460:	c1 11       	cpse	r28, r1
    1462:	06 c0       	rjmp	.+12     	; 0x1470 <irmp_ISR+0x906>
    1464:	80 91 79 00 	lds	r24, 0x0079	; 0x800079 <irmp_pulse_time.2334>
    1468:	8f 5f       	subi	r24, 0xFF	; 255
    146a:	80 93 79 00 	sts	0x0079, r24	; 0x800079 <irmp_pulse_time.2334>
    146e:	09 c0       	rjmp	.+18     	; 0x1482 <irmp_ISR+0x918>
    1470:	81 e0       	ldi	r24, 0x01	; 1
    1472:	80 93 77 00 	sts	0x0077, r24	; 0x800077 <wait_for_space.2332>
    1476:	81 e0       	ldi	r24, 0x01	; 1
    1478:	90 e0       	ldi	r25, 0x00	; 0
    147a:	90 93 76 00 	sts	0x0076, r25	; 0x800076 <irmp_pause_time.2335+0x1>
    147e:	80 93 75 00 	sts	0x0075, r24	; 0x800075 <irmp_pause_time.2335>
    1482:	80 91 7a 00 	lds	r24, 0x007A	; 0x80007a <irmp_start_bit_detected.2331>
    1486:	81 11       	cpse	r24, r1
    1488:	21 c0       	rjmp	.+66     	; 0x14cc <irmp_ISR+0x962>
    148a:	69 c0       	rjmp	.+210    	; 0x155e <irmp_ISR+0x9f4>
    148c:	2f 32       	cpi	r18, 0x2F	; 47
    148e:	31 05       	cpc	r19, r1
    1490:	08 f4       	brcc	.+2      	; 0x1494 <irmp_ISR+0x92a>
    1492:	97 ce       	rjmp	.-722    	; 0x11c2 <irmp_ISR+0x658>
    1494:	80 91 79 00 	lds	r24, 0x0079	; 0x800079 <irmp_pulse_time.2334>
    1498:	90 91 a0 00 	lds	r25, 0x00A0	; 0x8000a0 <irmp_param+0x5>
    149c:	89 17       	cp	r24, r25
    149e:	50 f2       	brcs	.-108    	; 0x1434 <irmp_ISR+0x8ca>
    14a0:	90 91 a1 00 	lds	r25, 0x00A1	; 0x8000a1 <irmp_param+0x6>
    14a4:	98 17       	cp	r25, r24
    14a6:	30 f2       	brcs	.-116    	; 0x1434 <irmp_ISR+0x8ca>
    14a8:	80 91 9b 00 	lds	r24, 0x009B	; 0x80009b <irmp_param>
    14ac:	8c 33       	cpi	r24, 0x3C	; 60
    14ae:	61 f4       	brne	.+24     	; 0x14c8 <irmp_ISR+0x95e>
    14b0:	80 91 86 00 	lds	r24, 0x0086	; 0x800086 <irmp_melinera_command>
    14b4:	90 91 87 00 	lds	r25, 0x0087	; 0x800087 <irmp_melinera_command+0x1>
    14b8:	90 93 8f 00 	sts	0x008F, r25	; 0x80008f <irmp_tmp_command+0x1>
    14bc:	80 93 8e 00 	sts	0x008E, r24	; 0x80008e <irmp_tmp_command>
    14c0:	10 92 91 00 	sts	0x0091, r1	; 0x800091 <irmp_tmp_address+0x1>
    14c4:	10 92 90 00 	sts	0x0090, r1	; 0x800090 <irmp_tmp_address>
    14c8:	10 92 a9 00 	sts	0x00A9, r1	; 0x8000a9 <irmp_param+0xe>
    14cc:	90 91 a8 00 	lds	r25, 0x00A8	; 0x8000a8 <irmp_param+0xd>
    14d0:	80 91 ac 00 	lds	r24, 0x00AC	; 0x8000ac <irmp_bit>
    14d4:	98 13       	cpse	r25, r24
    14d6:	43 c0       	rjmp	.+134    	; 0x155e <irmp_ISR+0x9f4>
    14d8:	80 91 a9 00 	lds	r24, 0x00A9	; 0x8000a9 <irmp_param+0xe>
    14dc:	81 11       	cpse	r24, r1
    14de:	3f c0       	rjmp	.+126    	; 0x155e <irmp_ISR+0x9f4>
    14e0:	60 91 60 00 	lds	r22, 0x0060	; 0x800060 <__DATA_REGION_ORIGIN__>
    14e4:	70 91 61 00 	lds	r23, 0x0061	; 0x800061 <__DATA_REGION_ORIGIN__+0x1>
    14e8:	20 91 8e 00 	lds	r18, 0x008E	; 0x80008e <irmp_tmp_command>
    14ec:	30 91 8f 00 	lds	r19, 0x008F	; 0x80008f <irmp_tmp_command+0x1>
    14f0:	62 17       	cp	r22, r18
    14f2:	73 07       	cpc	r23, r19
    14f4:	09 f0       	breq	.+2      	; 0x14f8 <irmp_ISR+0x98e>
    14f6:	a4 c2       	rjmp	.+1352   	; 0x1a40 <irmp_ISR+0xed6>
    14f8:	40 91 72 00 	lds	r20, 0x0072	; 0x800072 <key_repetition_len.2338>
    14fc:	50 91 73 00 	lds	r21, 0x0073	; 0x800073 <key_repetition_len.2338+0x1>
    1500:	40 3b       	cpi	r20, 0xB0	; 176
    1502:	54 40       	sbci	r21, 0x04	; 4
    1504:	08 f0       	brcs	.+2      	; 0x1508 <irmp_ISR+0x99e>
    1506:	9c c2       	rjmp	.+1336   	; 0x1a40 <irmp_ISR+0xed6>
    1508:	80 91 6c 00 	lds	r24, 0x006C	; 0x80006c <__data_end>
    150c:	8f 5f       	subi	r24, 0xFF	; 255
    150e:	80 93 6c 00 	sts	0x006C, r24	; 0x80006c <__data_end>
    1512:	80 91 9b 00 	lds	r24, 0x009B	; 0x80009b <irmp_param>
    1516:	81 30       	cpi	r24, 0x01	; 1
    1518:	09 f0       	breq	.+2      	; 0x151c <irmp_ISR+0x9b2>
    151a:	95 c2       	rjmp	.+1322   	; 0x1a46 <irmp_ISR+0xedc>
    151c:	40 91 6c 00 	lds	r20, 0x006C	; 0x80006c <__data_end>
    1520:	41 50       	subi	r20, 0x01	; 1
    1522:	42 30       	cpi	r20, 0x02	; 2
    1524:	08 f0       	brcs	.+2      	; 0x1528 <irmp_ISR+0x9be>
    1526:	98 c2       	rjmp	.+1328   	; 0x1a58 <irmp_ISR+0xeee>
    1528:	10 92 73 00 	sts	0x0073, r1	; 0x800073 <key_repetition_len.2338+0x1>
    152c:	10 92 72 00 	sts	0x0072, r1	; 0x800072 <key_repetition_len.2338>
    1530:	80 91 9a 00 	lds	r24, 0x009A	; 0x80009a <irmp_ir_detected>
    1534:	81 11       	cpse	r24, r1
    1536:	7b c3       	rjmp	.+1782   	; 0x1c2e <irmp_ISR+0x10c4>
    1538:	10 92 7a 00 	sts	0x007A, r1	; 0x80007a <irmp_start_bit_detected.2331>
    153c:	10 92 8f 00 	sts	0x008F, r1	; 0x80008f <irmp_tmp_command+0x1>
    1540:	10 92 8e 00 	sts	0x008E, r1	; 0x80008e <irmp_tmp_command>
    1544:	10 92 79 00 	sts	0x0079, r1	; 0x800079 <irmp_pulse_time.2334>
    1548:	10 92 76 00 	sts	0x0076, r1	; 0x800076 <irmp_pause_time.2335+0x1>
    154c:	10 92 75 00 	sts	0x0075, r1	; 0x800075 <irmp_pause_time.2335>
    1550:	80 91 99 00 	lds	r24, 0x0099	; 0x800099 <irmp_protocol>
    1554:	84 31       	cpi	r24, 0x14	; 20
    1556:	19 f4       	brne	.+6      	; 0x155e <irmp_ISR+0x9f4>
    1558:	87 e8       	ldi	r24, 0x87	; 135
    155a:	80 93 79 00 	sts	0x0079, r24	; 0x800079 <irmp_pulse_time.2334>
    155e:	80 91 9a 00 	lds	r24, 0x009A	; 0x80009a <irmp_ir_detected>
    1562:	df 91       	pop	r29
    1564:	cf 91       	pop	r28
    1566:	08 95       	ret
    1568:	80 91 ab 00 	lds	r24, 0x00AB	; 0x8000ab <irmp_param+0x10>
    156c:	80 ff       	sbrs	r24, 0
    156e:	9f c0       	rjmp	.+318    	; 0x16ae <irmp_ISR+0xb44>
    1570:	c0 91 79 00 	lds	r28, 0x0079	; 0x800079 <irmp_pulse_time.2334>
    1574:	90 91 9d 00 	lds	r25, 0x009D	; 0x80009d <irmp_param+0x2>
    1578:	9c 17       	cp	r25, r28
    157a:	08 f0       	brcs	.+2      	; 0x157e <irmp_ISR+0xa14>
    157c:	4e c0       	rjmp	.+156    	; 0x161a <irmp_ISR+0xab0>
    157e:	90 91 9b 00 	lds	r25, 0x009B	; 0x80009b <irmp_param>
    1582:	99 30       	cpi	r25, 0x09	; 9
    1584:	b1 f4       	brne	.+44     	; 0x15b2 <irmp_ISR+0xa48>
    1586:	90 91 ac 00 	lds	r25, 0x00AC	; 0x8000ac <irmp_bit>
    158a:	94 30       	cpi	r25, 0x04	; 4
    158c:	91 f4       	brne	.+36     	; 0x15b2 <irmp_ISR+0xa48>
    158e:	2c 2f       	mov	r18, r28
    1590:	30 e0       	ldi	r19, 0x00	; 0
    1592:	2c 30       	cpi	r18, 0x0C	; 12
    1594:	31 05       	cpc	r19, r1
    1596:	6c f0       	brlt	.+26     	; 0x15b2 <irmp_ISR+0xa48>
    1598:	80 91 a8 00 	lds	r24, 0x00A8	; 0x8000a8 <irmp_param+0xd>
    159c:	84 32       	cpi	r24, 0x24	; 36
    159e:	29 f4       	brne	.+10     	; 0x15aa <irmp_ISR+0xa40>
    15a0:	81 e0       	ldi	r24, 0x01	; 1
    15a2:	0e 94 4d 03 	call	0x69a	; 0x69a <irmp_store_bit>
    15a6:	81 e0       	ldi	r24, 0x01	; 1
    15a8:	35 c0       	rjmp	.+106    	; 0x1614 <irmp_ISR+0xaaa>
    15aa:	80 e0       	ldi	r24, 0x00	; 0
    15ac:	0e 94 4d 03 	call	0x69a	; 0x69a <irmp_store_bit>
    15b0:	21 c0       	rjmp	.+66     	; 0x15f4 <irmp_ISR+0xa8a>
    15b2:	d1 e0       	ldi	r29, 0x01	; 1
    15b4:	86 95       	lsr	r24
    15b6:	81 70       	andi	r24, 0x01	; 1
    15b8:	8d 27       	eor	r24, r29
    15ba:	0e 94 4d 03 	call	0x69a	; 0x69a <irmp_store_bit>
    15be:	80 91 9b 00 	lds	r24, 0x009B	; 0x80009b <irmp_param>
    15c2:	89 30       	cpi	r24, 0x09	; 9
    15c4:	e9 f4       	brne	.+58     	; 0x1600 <irmp_ISR+0xa96>
    15c6:	80 91 ac 00 	lds	r24, 0x00AC	; 0x8000ac <irmp_bit>
    15ca:	84 30       	cpi	r24, 0x04	; 4
    15cc:	c9 f4       	brne	.+50     	; 0x1600 <irmp_ISR+0xa96>
    15ce:	8c 2f       	mov	r24, r28
    15d0:	90 e0       	ldi	r25, 0x00	; 0
    15d2:	0c 97       	sbiw	r24, 0x0c	; 12
    15d4:	ac f0       	brlt	.+42     	; 0x1600 <irmp_ISR+0xa96>
    15d6:	81 e0       	ldi	r24, 0x01	; 1
    15d8:	0e 94 4d 03 	call	0x69a	; 0x69a <irmp_store_bit>
    15dc:	80 91 9f 00 	lds	r24, 0x009F	; 0x80009f <irmp_param+0x4>
    15e0:	90 e0       	ldi	r25, 0x00	; 0
    15e2:	88 0f       	add	r24, r24
    15e4:	99 1f       	adc	r25, r25
    15e6:	20 91 75 00 	lds	r18, 0x0075	; 0x800075 <irmp_pause_time.2335>
    15ea:	30 91 76 00 	lds	r19, 0x0076	; 0x800076 <irmp_pause_time.2335+0x1>
    15ee:	82 17       	cp	r24, r18
    15f0:	93 07       	cpc	r25, r19
    15f2:	18 f4       	brcc	.+6      	; 0x15fa <irmp_ISR+0xa90>
    15f4:	10 92 6d 00 	sts	0x006D, r1	; 0x80006d <last_value.2344>
    15f8:	51 c0       	rjmp	.+162    	; 0x169c <irmp_ISR+0xb32>
    15fa:	d0 93 6d 00 	sts	0x006D, r29	; 0x80006d <last_value.2344>
    15fe:	4e c0       	rjmp	.+156    	; 0x169c <irmp_ISR+0xb32>
    1600:	80 91 ab 00 	lds	r24, 0x00AB	; 0x8000ab <irmp_param+0x10>
    1604:	86 95       	lsr	r24
    1606:	81 70       	andi	r24, 0x01	; 1
    1608:	0e 94 4d 03 	call	0x69a	; 0x69a <irmp_store_bit>
    160c:	80 91 ab 00 	lds	r24, 0x00AB	; 0x8000ab <irmp_param+0x10>
    1610:	86 95       	lsr	r24
    1612:	81 70       	andi	r24, 0x01	; 1
    1614:	80 93 6d 00 	sts	0x006D, r24	; 0x80006d <last_value.2344>
    1618:	41 c0       	rjmp	.+130    	; 0x169c <irmp_ISR+0xb32>
    161a:	80 91 9c 00 	lds	r24, 0x009C	; 0x80009c <irmp_param+0x1>
    161e:	c8 17       	cp	r28, r24
    1620:	b8 f1       	brcs	.+110    	; 0x1690 <irmp_ISR+0xb26>
    1622:	80 91 9f 00 	lds	r24, 0x009F	; 0x80009f <irmp_param+0x4>
    1626:	40 91 6e 00 	lds	r20, 0x006E	; 0x80006e <last_pause.2343>
    162a:	50 91 6f 00 	lds	r21, 0x006F	; 0x80006f <last_pause.2343+0x1>
    162e:	90 e0       	ldi	r25, 0x00	; 0
    1630:	20 91 6d 00 	lds	r18, 0x006D	; 0x80006d <last_value.2344>
    1634:	84 17       	cp	r24, r20
    1636:	95 07       	cpc	r25, r21
    1638:	58 f4       	brcc	.+22     	; 0x1650 <irmp_ISR+0xae6>
    163a:	88 0f       	add	r24, r24
    163c:	99 1f       	adc	r25, r25
    163e:	84 17       	cp	r24, r20
    1640:	95 07       	cpc	r25, r21
    1642:	30 f0       	brcs	.+12     	; 0x1650 <irmp_ISR+0xae6>
    1644:	81 e0       	ldi	r24, 0x01	; 1
    1646:	21 11       	cpse	r18, r1
    1648:	80 e0       	ldi	r24, 0x00	; 0
    164a:	80 93 6d 00 	sts	0x006D, r24	; 0x80006d <last_value.2344>
    164e:	01 c0       	rjmp	.+2      	; 0x1652 <irmp_ISR+0xae8>
    1650:	82 2f       	mov	r24, r18
    1652:	90 91 9b 00 	lds	r25, 0x009B	; 0x80009b <irmp_param>
    1656:	99 30       	cpi	r25, 0x09	; 9
    1658:	c1 f4       	brne	.+48     	; 0x168a <irmp_ISR+0xb20>
    165a:	90 91 ac 00 	lds	r25, 0x00AC	; 0x8000ac <irmp_bit>
    165e:	91 30       	cpi	r25, 0x01	; 1
    1660:	a1 f4       	brne	.+40     	; 0x168a <irmp_ISR+0xb20>
    1662:	81 30       	cpi	r24, 0x01	; 1
    1664:	91 f4       	brne	.+36     	; 0x168a <irmp_ISR+0xb20>
    1666:	94 e2       	ldi	r25, 0x24	; 36
    1668:	90 93 a8 00 	sts	0x00A8, r25	; 0x8000a8 <irmp_param+0xd>
    166c:	25 e0       	ldi	r18, 0x05	; 5
    166e:	20 93 a4 00 	sts	0x00A4, r18	; 0x8000a4 <irmp_param+0x9>
    1672:	24 e1       	ldi	r18, 0x14	; 20
    1674:	20 93 a5 00 	sts	0x00A5, r18	; 0x8000a5 <irmp_param+0xa>
    1678:	25 e1       	ldi	r18, 0x15	; 21
    167a:	20 93 a6 00 	sts	0x00A6, r18	; 0x8000a6 <irmp_param+0xb>
    167e:	90 93 a7 00 	sts	0x00A7, r25	; 0x8000a7 <irmp_param+0xc>
    1682:	10 92 91 00 	sts	0x0091, r1	; 0x800091 <irmp_tmp_address+0x1>
    1686:	10 92 90 00 	sts	0x0090, r1	; 0x800090 <irmp_tmp_address>
    168a:	0e 94 4d 03 	call	0x69a	; 0x69a <irmp_store_bit>
    168e:	06 c0       	rjmp	.+12     	; 0x169c <irmp_ISR+0xb32>
    1690:	10 92 7a 00 	sts	0x007A, r1	; 0x80007a <irmp_start_bit_detected.2331>
    1694:	10 92 76 00 	sts	0x0076, r1	; 0x800076 <irmp_pause_time.2335+0x1>
    1698:	10 92 75 00 	sts	0x0075, r1	; 0x800075 <irmp_pause_time.2335>
    169c:	80 91 75 00 	lds	r24, 0x0075	; 0x800075 <irmp_pause_time.2335>
    16a0:	90 91 76 00 	lds	r25, 0x0076	; 0x800076 <irmp_pause_time.2335+0x1>
    16a4:	90 93 6f 00 	sts	0x006F, r25	; 0x80006f <last_pause.2343+0x1>
    16a8:	80 93 6e 00 	sts	0x006E, r24	; 0x80006e <last_pause.2343>
    16ac:	13 c1       	rjmp	.+550    	; 0x18d4 <irmp_ISR+0xd6a>
    16ae:	90 91 9b 00 	lds	r25, 0x009B	; 0x80009b <irmp_param>
    16b2:	93 30       	cpi	r25, 0x03	; 3
    16b4:	39 f5       	brne	.+78     	; 0x1704 <irmp_ISR+0xb9a>
    16b6:	20 91 ac 00 	lds	r18, 0x00AC	; 0x8000ac <irmp_bit>
    16ba:	20 31       	cpi	r18, 0x10	; 16
    16bc:	09 f0       	breq	.+2      	; 0x16c0 <irmp_ISR+0xb56>
    16be:	8e c0       	rjmp	.+284    	; 0x17dc <irmp_ISR+0xc72>
    16c0:	80 91 79 00 	lds	r24, 0x0079	; 0x800079 <irmp_pulse_time.2334>
    16c4:	85 50       	subi	r24, 0x05	; 5
    16c6:	88 30       	cpi	r24, 0x08	; 8
    16c8:	38 f5       	brcc	.+78     	; 0x1718 <irmp_ISR+0xbae>
    16ca:	80 91 75 00 	lds	r24, 0x0075	; 0x800075 <irmp_pause_time.2335>
    16ce:	90 91 76 00 	lds	r25, 0x0076	; 0x800076 <irmp_pause_time.2335+0x1>
    16d2:	ac 01       	movw	r20, r24
    16d4:	4c 53       	subi	r20, 0x3C	; 60
    16d6:	51 09       	sbc	r21, r1
    16d8:	40 31       	cpi	r20, 0x10	; 16
    16da:	51 05       	cpc	r21, r1
    16dc:	20 f4       	brcc	.+8      	; 0x16e6 <irmp_ISR+0xb7c>
    16de:	10 92 77 00 	sts	0x0077, r1	; 0x800077 <wait_for_space.2332>
    16e2:	81 e1       	ldi	r24, 0x11	; 17
    16e4:	4d c0       	rjmp	.+154    	; 0x1780 <irmp_ISR+0xc16>
    16e6:	39 e2       	ldi	r19, 0x29	; 41
    16e8:	30 93 9b 00 	sts	0x009B, r19	; 0x80009b <irmp_param>
    16ec:	20 93 a6 00 	sts	0x00A6, r18	; 0x8000a6 <irmp_param+0xb>
    16f0:	20 e3       	ldi	r18, 0x30	; 48
    16f2:	20 93 a7 00 	sts	0x00A7, r18	; 0x8000a7 <irmp_param+0xc>
    16f6:	20 93 a8 00 	sts	0x00A8, r18	; 0x8000a8 <irmp_param+0xd>
    16fa:	0f 97       	sbiw	r24, 0x0f	; 15
    16fc:	40 97       	sbiw	r24, 0x10	; 16
    16fe:	08 f0       	brcs	.+2      	; 0x1702 <irmp_ISR+0xb98>
    1700:	e4 c0       	rjmp	.+456    	; 0x18ca <irmp_ISR+0xd60>
    1702:	e5 c0       	rjmp	.+458    	; 0x18ce <irmp_ISR+0xd64>
    1704:	9c 31       	cpi	r25, 0x1C	; 28
    1706:	79 f0       	breq	.+30     	; 0x1726 <irmp_ISR+0xbbc>
    1708:	9e 30       	cpi	r25, 0x0E	; 14
    170a:	09 f0       	breq	.+2      	; 0x170e <irmp_ISR+0xba4>
    170c:	67 c0       	rjmp	.+206    	; 0x17dc <irmp_ISR+0xc72>
    170e:	80 91 79 00 	lds	r24, 0x0079	; 0x800079 <irmp_pulse_time.2334>
    1712:	82 50       	subi	r24, 0x02	; 2
    1714:	83 30       	cpi	r24, 0x03	; 3
    1716:	28 f1       	brcs	.+74     	; 0x1762 <irmp_ISR+0xbf8>
    1718:	10 92 7a 00 	sts	0x007A, r1	; 0x80007a <irmp_start_bit_detected.2331>
    171c:	10 92 76 00 	sts	0x0076, r1	; 0x800076 <irmp_pause_time.2335+0x1>
    1720:	10 92 75 00 	sts	0x0075, r1	; 0x800075 <irmp_pause_time.2335>
    1724:	d9 c0       	rjmp	.+434    	; 0x18d8 <irmp_ISR+0xd6e>
    1726:	80 91 ac 00 	lds	r24, 0x00AC	; 0x8000ac <irmp_bit>
    172a:	88 30       	cpi	r24, 0x08	; 8
    172c:	09 f0       	breq	.+2      	; 0x1730 <irmp_ISR+0xbc6>
    172e:	56 c0       	rjmp	.+172    	; 0x17dc <irmp_ISR+0xc72>
    1730:	20 91 75 00 	lds	r18, 0x0075	; 0x800075 <irmp_pause_time.2335>
    1734:	30 91 76 00 	lds	r19, 0x0076	; 0x800076 <irmp_pause_time.2335+0x1>
    1738:	2e 52       	subi	r18, 0x2E	; 46
    173a:	31 09       	sbc	r19, r1
    173c:	2c 32       	cpi	r18, 0x2C	; 44
    173e:	31 05       	cpc	r19, r1
    1740:	08 f0       	brcs	.+2      	; 0x1744 <irmp_ISR+0xbda>
    1742:	4c c0       	rjmp	.+152    	; 0x17dc <irmp_ISR+0xc72>
    1744:	9b e1       	ldi	r25, 0x1B	; 27
    1746:	90 93 9b 00 	sts	0x009B, r25	; 0x80009b <irmp_param>
    174a:	10 92 a4 00 	sts	0x00A4, r1	; 0x8000a4 <irmp_param+0x9>
    174e:	80 93 a5 00 	sts	0x00A5, r24	; 0x8000a5 <irmp_param+0xa>
    1752:	80 93 a6 00 	sts	0x00A6, r24	; 0x8000a6 <irmp_param+0xb>
    1756:	80 e1       	ldi	r24, 0x10	; 16
    1758:	80 93 a7 00 	sts	0x00A7, r24	; 0x8000a7 <irmp_param+0xc>
    175c:	80 93 a8 00 	sts	0x00A8, r24	; 0x8000a8 <irmp_param+0xd>
    1760:	b9 c0       	rjmp	.+370    	; 0x18d4 <irmp_ISR+0xd6a>
    1762:	20 91 ac 00 	lds	r18, 0x00AC	; 0x8000ac <irmp_bit>
    1766:	80 91 75 00 	lds	r24, 0x0075	; 0x800075 <irmp_pause_time.2335>
    176a:	90 91 76 00 	lds	r25, 0x0076	; 0x800076 <irmp_pause_time.2335+0x1>
    176e:	21 30       	cpi	r18, 0x01	; 1
    1770:	51 f4       	brne	.+20     	; 0x1786 <irmp_ISR+0xc1c>
    1772:	82 5d       	subi	r24, 0xD2	; 210
    1774:	91 09       	sbc	r25, r1
    1776:	86 97       	sbiw	r24, 0x26	; 38
    1778:	78 f6       	brcc	.-98     	; 0x1718 <irmp_ISR+0xbae>
    177a:	10 92 77 00 	sts	0x0077, r1	; 0x800077 <wait_for_space.2332>
    177e:	82 e0       	ldi	r24, 0x02	; 2
    1780:	80 93 ac 00 	sts	0x00AC, r24	; 0x8000ac <irmp_bit>
    1784:	a9 c0       	rjmp	.+338    	; 0x18d8 <irmp_ISR+0xd6e>
    1786:	23 31       	cpi	r18, 0x13	; 19
    1788:	41 f4       	brne	.+16     	; 0x179a <irmp_ISR+0xc30>
    178a:	88 5a       	subi	r24, 0xA8	; 168
    178c:	91 09       	sbc	r25, r1
    178e:	88 97       	sbiw	r24, 0x28	; 40
    1790:	18 f6       	brcc	.-122    	; 0x1718 <irmp_ISR+0xbae>
    1792:	10 92 77 00 	sts	0x0077, r1	; 0x800077 <wait_for_space.2332>
    1796:	84 e1       	ldi	r24, 0x14	; 20
    1798:	f3 cf       	rjmp	.-26     	; 0x1780 <irmp_ISR+0xc16>
    179a:	9c 01       	movw	r18, r24
    179c:	2e 57       	subi	r18, 0x7E	; 126
    179e:	31 09       	sbc	r19, r1
    17a0:	2f 31       	cpi	r18, 0x1F	; 31
    17a2:	31 05       	cpc	r19, r1
    17a4:	38 f4       	brcc	.+14     	; 0x17b4 <irmp_ISR+0xc4a>
    17a6:	81 e0       	ldi	r24, 0x01	; 1
    17a8:	0e 94 4d 03 	call	0x69a	; 0x69a <irmp_store_bit>
    17ac:	81 e0       	ldi	r24, 0x01	; 1
    17ae:	80 93 6d 00 	sts	0x006D, r24	; 0x80006d <last_value.2344>
    17b2:	90 c0       	rjmp	.+288    	; 0x18d4 <irmp_ISR+0xd6a>
    17b4:	9c 01       	movw	r18, r24
    17b6:	29 52       	subi	r18, 0x29	; 41
    17b8:	31 09       	sbc	r19, r1
    17ba:	2d 30       	cpi	r18, 0x0D	; 13
    17bc:	31 05       	cpc	r19, r1
    17be:	30 f4       	brcc	.+12     	; 0x17cc <irmp_ISR+0xc62>
    17c0:	80 e0       	ldi	r24, 0x00	; 0
    17c2:	0e 94 4d 03 	call	0x69a	; 0x69a <irmp_store_bit>
    17c6:	10 92 6d 00 	sts	0x006D, r1	; 0x80006d <last_value.2344>
    17ca:	84 c0       	rjmp	.+264    	; 0x18d4 <irmp_ISR+0xd6a>
    17cc:	83 55       	subi	r24, 0x53	; 83
    17ce:	91 09       	sbc	r25, r1
    17d0:	46 97       	sbiw	r24, 0x16	; 22
    17d2:	08 f0       	brcs	.+2      	; 0x17d6 <irmp_ISR+0xc6c>
    17d4:	a1 cf       	rjmp	.-190    	; 0x1718 <irmp_ISR+0xbae>
    17d6:	80 91 6d 00 	lds	r24, 0x006D	; 0x80006d <last_value.2344>
    17da:	7a c0       	rjmp	.+244    	; 0x18d0 <irmp_ISR+0xd66>
    17dc:	80 91 79 00 	lds	r24, 0x0079	; 0x800079 <irmp_pulse_time.2334>
    17e0:	20 91 9c 00 	lds	r18, 0x009C	; 0x80009c <irmp_param+0x1>
    17e4:	82 17       	cp	r24, r18
    17e6:	a8 f0       	brcs	.+42     	; 0x1812 <irmp_ISR+0xca8>
    17e8:	20 91 9d 00 	lds	r18, 0x009D	; 0x80009d <irmp_param+0x2>
    17ec:	28 17       	cp	r18, r24
    17ee:	88 f0       	brcs	.+34     	; 0x1812 <irmp_ISR+0xca8>
    17f0:	40 91 75 00 	lds	r20, 0x0075	; 0x800075 <irmp_pause_time.2335>
    17f4:	50 91 76 00 	lds	r21, 0x0076	; 0x800076 <irmp_pause_time.2335+0x1>
    17f8:	20 91 9e 00 	lds	r18, 0x009E	; 0x80009e <irmp_param+0x3>
    17fc:	30 e0       	ldi	r19, 0x00	; 0
    17fe:	42 17       	cp	r20, r18
    1800:	53 07       	cpc	r21, r19
    1802:	38 f0       	brcs	.+14     	; 0x1812 <irmp_ISR+0xca8>
    1804:	20 91 9f 00 	lds	r18, 0x009F	; 0x80009f <irmp_param+0x4>
    1808:	30 e0       	ldi	r19, 0x00	; 0
    180a:	24 17       	cp	r18, r20
    180c:	35 07       	cpc	r19, r21
    180e:	08 f0       	brcs	.+2      	; 0x1812 <irmp_ISR+0xca8>
    1810:	5e c0       	rjmp	.+188    	; 0x18ce <irmp_ISR+0xd64>
    1812:	20 91 a0 00 	lds	r18, 0x00A0	; 0x8000a0 <irmp_param+0x5>
    1816:	82 17       	cp	r24, r18
    1818:	a8 f0       	brcs	.+42     	; 0x1844 <irmp_ISR+0xcda>
    181a:	20 91 a1 00 	lds	r18, 0x00A1	; 0x8000a1 <irmp_param+0x6>
    181e:	28 17       	cp	r18, r24
    1820:	88 f0       	brcs	.+34     	; 0x1844 <irmp_ISR+0xcda>
    1822:	40 91 75 00 	lds	r20, 0x0075	; 0x800075 <irmp_pause_time.2335>
    1826:	50 91 76 00 	lds	r21, 0x0076	; 0x800076 <irmp_pause_time.2335+0x1>
    182a:	20 91 a2 00 	lds	r18, 0x00A2	; 0x8000a2 <irmp_param+0x7>
    182e:	30 e0       	ldi	r19, 0x00	; 0
    1830:	42 17       	cp	r20, r18
    1832:	53 07       	cpc	r21, r19
    1834:	38 f0       	brcs	.+14     	; 0x1844 <irmp_ISR+0xcda>
    1836:	20 91 a3 00 	lds	r18, 0x00A3	; 0x8000a3 <irmp_param+0x8>
    183a:	30 e0       	ldi	r19, 0x00	; 0
    183c:	24 17       	cp	r18, r20
    183e:	35 07       	cpc	r19, r21
    1840:	08 f0       	brcs	.+2      	; 0x1844 <irmp_ISR+0xcda>
    1842:	43 c0       	rjmp	.+134    	; 0x18ca <irmp_ISR+0xd60>
    1844:	9c 31       	cpi	r25, 0x1C	; 28
    1846:	09 f0       	breq	.+2      	; 0x184a <irmp_ISR+0xce0>
    1848:	67 cf       	rjmp	.-306    	; 0x1718 <irmp_ISR+0xbae>
    184a:	9c ef       	ldi	r25, 0xFC	; 252
    184c:	98 0f       	add	r25, r24
    184e:	97 30       	cpi	r25, 0x07	; 7
    1850:	48 f4       	brcc	.+18     	; 0x1864 <irmp_ISR+0xcfa>
    1852:	20 91 75 00 	lds	r18, 0x0075	; 0x800075 <irmp_pause_time.2335>
    1856:	30 91 76 00 	lds	r19, 0x0076	; 0x800076 <irmp_pause_time.2335+0x1>
    185a:	25 50       	subi	r18, 0x05	; 5
    185c:	31 09       	sbc	r19, r1
    185e:	29 30       	cpi	r18, 0x09	; 9
    1860:	31 05       	cpc	r19, r1
    1862:	60 f0       	brcs	.+24     	; 0x187c <irmp_ISR+0xd12>
    1864:	89 50       	subi	r24, 0x09	; 9
    1866:	8c 30       	cpi	r24, 0x0C	; 12
    1868:	08 f0       	brcs	.+2      	; 0x186c <irmp_ISR+0xd02>
    186a:	56 cf       	rjmp	.-340    	; 0x1718 <irmp_ISR+0xbae>
    186c:	80 91 75 00 	lds	r24, 0x0075	; 0x800075 <irmp_pause_time.2335>
    1870:	90 91 76 00 	lds	r25, 0x0076	; 0x800076 <irmp_pause_time.2335+0x1>
    1874:	0b 97       	sbiw	r24, 0x0b	; 11
    1876:	0d 97       	sbiw	r24, 0x0d	; 13
    1878:	08 f0       	brcs	.+2      	; 0x187c <irmp_ISR+0xd12>
    187a:	4e cf       	rjmp	.-356    	; 0x1718 <irmp_ISR+0xbae>
    187c:	8c e3       	ldi	r24, 0x3C	; 60
    187e:	80 93 9b 00 	sts	0x009B, r24	; 0x80009b <irmp_param>
    1882:	84 e0       	ldi	r24, 0x04	; 4
    1884:	80 93 a0 00 	sts	0x00A0, r24	; 0x8000a0 <irmp_param+0x5>
    1888:	85 e0       	ldi	r24, 0x05	; 5
    188a:	80 93 a2 00 	sts	0x00A2, r24	; 0x8000a2 <irmp_param+0x7>
    188e:	8d e0       	ldi	r24, 0x0D	; 13
    1890:	80 93 a1 00 	sts	0x00A1, r24	; 0x8000a1 <irmp_param+0x6>
    1894:	89 e0       	ldi	r24, 0x09	; 9
    1896:	80 93 9c 00 	sts	0x009C, r24	; 0x80009c <irmp_param+0x1>
    189a:	8b e0       	ldi	r24, 0x0B	; 11
    189c:	80 93 9e 00 	sts	0x009E, r24	; 0x80009e <irmp_param+0x3>
    18a0:	87 e1       	ldi	r24, 0x17	; 23
    18a2:	80 93 9d 00 	sts	0x009D, r24	; 0x80009d <irmp_param+0x2>
    18a6:	10 92 a4 00 	sts	0x00A4, r1	; 0x8000a4 <irmp_param+0x9>
    18aa:	10 92 a5 00 	sts	0x00A5, r1	; 0x8000a5 <irmp_param+0xa>
    18ae:	10 92 a6 00 	sts	0x00A6, r1	; 0x8000a6 <irmp_param+0xb>
    18b2:	88 e0       	ldi	r24, 0x08	; 8
    18b4:	80 93 a7 00 	sts	0x00A7, r24	; 0x8000a7 <irmp_param+0xc>
    18b8:	80 93 a8 00 	sts	0x00A8, r24	; 0x8000a8 <irmp_param+0xd>
    18bc:	80 91 75 00 	lds	r24, 0x0075	; 0x800075 <irmp_pause_time.2335>
    18c0:	90 91 76 00 	lds	r25, 0x0076	; 0x800076 <irmp_pause_time.2335+0x1>
    18c4:	05 97       	sbiw	r24, 0x05	; 5
    18c6:	09 97       	sbiw	r24, 0x09	; 9
    18c8:	10 f4       	brcc	.+4      	; 0x18ce <irmp_ISR+0xd64>
    18ca:	80 e0       	ldi	r24, 0x00	; 0
    18cc:	01 c0       	rjmp	.+2      	; 0x18d0 <irmp_ISR+0xd66>
    18ce:	81 e0       	ldi	r24, 0x01	; 1
    18d0:	0e 94 4d 03 	call	0x69a	; 0x69a <irmp_store_bit>
    18d4:	10 92 77 00 	sts	0x0077, r1	; 0x800077 <wait_for_space.2332>
    18d8:	81 e0       	ldi	r24, 0x01	; 1
    18da:	c7 cd       	rjmp	.-1138   	; 0x146a <irmp_ISR+0x900>
    18dc:	81 11       	cpse	r24, r1
    18de:	6d c0       	rjmp	.+218    	; 0x19ba <irmp_ISR+0xe50>
    18e0:	80 91 72 00 	lds	r24, 0x0072	; 0x800072 <key_repetition_len.2338>
    18e4:	90 91 73 00 	lds	r25, 0x0073	; 0x800073 <key_repetition_len.2338+0x1>
    18e8:	88 30       	cpi	r24, 0x08	; 8
    18ea:	97 40       	sbci	r25, 0x07	; 7
    18ec:	10 f5       	brcc	.+68     	; 0x1932 <irmp_ISR+0xdc8>
    18ee:	81 e0       	ldi	r24, 0x01	; 1
    18f0:	80 93 a9 00 	sts	0x00A9, r24	; 0x8000a9 <irmp_param+0xe>
    18f4:	82 e0       	ldi	r24, 0x02	; 2
    18f6:	80 93 9b 00 	sts	0x009B, r24	; 0x80009b <irmp_param>
    18fa:	10 92 a8 00 	sts	0x00A8, r1	; 0x8000a8 <irmp_param+0xd>
    18fe:	80 91 62 00 	lds	r24, 0x0062	; 0x800062 <last_irmp_address.2336>
    1902:	90 91 63 00 	lds	r25, 0x0063	; 0x800063 <last_irmp_address.2336+0x1>
    1906:	90 93 91 00 	sts	0x0091, r25	; 0x800091 <irmp_tmp_address+0x1>
    190a:	80 93 90 00 	sts	0x0090, r24	; 0x800090 <irmp_tmp_address>
    190e:	80 91 60 00 	lds	r24, 0x0060	; 0x800060 <__DATA_REGION_ORIGIN__>
    1912:	90 91 61 00 	lds	r25, 0x0061	; 0x800061 <__DATA_REGION_ORIGIN__+0x1>
    1916:	90 93 8f 00 	sts	0x008F, r25	; 0x80008f <irmp_tmp_command+0x1>
    191a:	80 93 8e 00 	sts	0x008E, r24	; 0x80008e <irmp_tmp_command>
    191e:	80 91 92 00 	lds	r24, 0x0092	; 0x800092 <irmp_flags>
    1922:	81 60       	ori	r24, 0x01	; 1
    1924:	80 93 92 00 	sts	0x0092, r24	; 0x800092 <irmp_flags>
    1928:	10 92 73 00 	sts	0x0073, r1	; 0x800073 <key_repetition_len.2338+0x1>
    192c:	10 92 72 00 	sts	0x0072, r1	; 0x800072 <key_repetition_len.2338>
    1930:	cd cd       	rjmp	.-1126   	; 0x14cc <irmp_ISR+0x962>
    1932:	10 92 9a 00 	sts	0x009A, r1	; 0x80009a <irmp_ir_detected>
    1936:	ca cd       	rjmp	.-1132   	; 0x14cc <irmp_ISR+0x962>
    1938:	8c 31       	cpi	r24, 0x1C	; 28
    193a:	a9 f4       	brne	.+42     	; 0x1966 <irmp_ISR+0xdfc>
    193c:	91 e0       	ldi	r25, 0x01	; 1
    193e:	90 93 a9 00 	sts	0x00A9, r25	; 0x8000a9 <irmp_param+0xe>
    1942:	98 e2       	ldi	r25, 0x28	; 40
    1944:	90 93 9b 00 	sts	0x009B, r25	; 0x80009b <irmp_param>
    1948:	80 93 a8 00 	sts	0x00A8, r24	; 0x8000a8 <irmp_param+0xd>
    194c:	80 91 8a 00 	lds	r24, 0x008A	; 0x80008a <irmp_lgair_address>
    1950:	90 91 8b 00 	lds	r25, 0x008B	; 0x80008b <irmp_lgair_address+0x1>
    1954:	90 93 91 00 	sts	0x0091, r25	; 0x800091 <irmp_tmp_address+0x1>
    1958:	80 93 90 00 	sts	0x0090, r24	; 0x800090 <irmp_tmp_address>
    195c:	80 91 88 00 	lds	r24, 0x0088	; 0x800088 <irmp_lgair_command>
    1960:	90 91 89 00 	lds	r25, 0x0089	; 0x800089 <irmp_lgair_command+0x1>
    1964:	60 cd       	rjmp	.-1344   	; 0x1426 <irmp_ISR+0x8bc>
    1966:	90 ef       	ldi	r25, 0xF0	; 240
    1968:	98 0f       	add	r25, r24
    196a:	92 30       	cpi	r25, 0x02	; 2
    196c:	08 f0       	brcs	.+2      	; 0x1970 <irmp_ISR+0xe06>
    196e:	62 cd       	rjmp	.-1340   	; 0x1434 <irmp_ISR+0x8ca>
    1970:	91 e0       	ldi	r25, 0x01	; 1
    1972:	90 93 a9 00 	sts	0x00A9, r25	; 0x8000a9 <irmp_param+0xe>
    1976:	94 e1       	ldi	r25, 0x14	; 20
    1978:	90 93 9b 00 	sts	0x009B, r25	; 0x80009b <irmp_param>
    197c:	80 93 a8 00 	sts	0x00A8, r24	; 0x8000a8 <irmp_param+0xd>
    1980:	80 91 90 00 	lds	r24, 0x0090	; 0x800090 <irmp_tmp_address>
    1984:	90 91 91 00 	lds	r25, 0x0091	; 0x800091 <irmp_tmp_address+0x1>
    1988:	20 91 8c 00 	lds	r18, 0x008C	; 0x80008c <irmp_tmp_address2>
    198c:	40 e0       	ldi	r20, 0x00	; 0
    198e:	50 e0       	ldi	r21, 0x00	; 0
    1990:	52 2f       	mov	r21, r18
    1992:	55 0f       	add	r21, r21
    1994:	9c 01       	movw	r18, r24
    1996:	64 e0       	ldi	r22, 0x04	; 4
    1998:	36 95       	lsr	r19
    199a:	27 95       	ror	r18
    199c:	6a 95       	dec	r22
    199e:	e1 f7       	brne	.-8      	; 0x1998 <irmp_ISR+0xe2e>
    19a0:	24 2b       	or	r18, r20
    19a2:	35 2b       	or	r19, r21
    19a4:	30 93 8f 00 	sts	0x008F, r19	; 0x80008f <irmp_tmp_command+0x1>
    19a8:	20 93 8e 00 	sts	0x008E, r18	; 0x80008e <irmp_tmp_command>
    19ac:	8f 70       	andi	r24, 0x0F	; 15
    19ae:	99 27       	eor	r25, r25
    19b0:	90 93 91 00 	sts	0x0091, r25	; 0x800091 <irmp_tmp_address+0x1>
    19b4:	80 93 90 00 	sts	0x0090, r24	; 0x800090 <irmp_tmp_address>
    19b8:	89 cd       	rjmp	.-1262   	; 0x14cc <irmp_ISR+0x962>
    19ba:	90 ef       	ldi	r25, 0xF0	; 240
    19bc:	98 0f       	add	r25, r24
    19be:	92 30       	cpi	r25, 0x02	; 2
    19c0:	f8 f4       	brcc	.+62     	; 0x1a00 <irmp_ISR+0xe96>
    19c2:	21 e0       	ldi	r18, 0x01	; 1
    19c4:	20 93 a9 00 	sts	0x00A9, r18	; 0x8000a9 <irmp_param+0xe>
    19c8:	94 e1       	ldi	r25, 0x14	; 20
    19ca:	90 93 9b 00 	sts	0x009B, r25	; 0x80009b <irmp_param>
    19ce:	80 93 a8 00 	sts	0x00A8, r24	; 0x8000a8 <irmp_param+0xd>
    19d2:	80 91 90 00 	lds	r24, 0x0090	; 0x800090 <irmp_tmp_address>
    19d6:	90 91 91 00 	lds	r25, 0x0091	; 0x800091 <irmp_tmp_address+0x1>
    19da:	ac 01       	movw	r20, r24
    19dc:	f4 e0       	ldi	r31, 0x04	; 4
    19de:	56 95       	lsr	r21
    19e0:	47 95       	ror	r20
    19e2:	fa 95       	dec	r31
    19e4:	e1 f7       	brne	.-8      	; 0x19de <irmp_ISR+0xe74>
    19e6:	50 93 8f 00 	sts	0x008F, r21	; 0x80008f <irmp_tmp_command+0x1>
    19ea:	40 93 8e 00 	sts	0x008E, r20	; 0x80008e <irmp_tmp_command>
    19ee:	8f 70       	andi	r24, 0x0F	; 15
    19f0:	99 27       	eor	r25, r25
    19f2:	90 93 91 00 	sts	0x0091, r25	; 0x800091 <irmp_tmp_address+0x1>
    19f6:	80 93 90 00 	sts	0x0090, r24	; 0x800090 <irmp_tmp_address>
    19fa:	20 93 7a 00 	sts	0x007A, r18	; 0x80007a <irmp_start_bit_detected.2331>
    19fe:	66 cd       	rjmp	.-1332   	; 0x14cc <irmp_ISR+0x962>
    1a00:	94 ee       	ldi	r25, 0xE4	; 228
    1a02:	98 0f       	add	r25, r24
    1a04:	92 30       	cpi	r25, 0x02	; 2
    1a06:	08 f0       	brcs	.+2      	; 0x1a0a <irmp_ISR+0xea0>
    1a08:	15 cd       	rjmp	.-1494   	; 0x1434 <irmp_ISR+0x8ca>
    1a0a:	91 e0       	ldi	r25, 0x01	; 1
    1a0c:	90 93 a9 00 	sts	0x00A9, r25	; 0x8000a9 <irmp_param+0xe>
    1a10:	28 e2       	ldi	r18, 0x28	; 40
    1a12:	20 93 9b 00 	sts	0x009B, r18	; 0x80009b <irmp_param>
    1a16:	80 93 a8 00 	sts	0x00A8, r24	; 0x8000a8 <irmp_param+0xd>
    1a1a:	20 91 88 00 	lds	r18, 0x0088	; 0x800088 <irmp_lgair_command>
    1a1e:	30 91 89 00 	lds	r19, 0x0089	; 0x800089 <irmp_lgair_command+0x1>
    1a22:	30 93 8f 00 	sts	0x008F, r19	; 0x80008f <irmp_tmp_command+0x1>
    1a26:	20 93 8e 00 	sts	0x008E, r18	; 0x80008e <irmp_tmp_command>
    1a2a:	20 91 8a 00 	lds	r18, 0x008A	; 0x80008a <irmp_lgair_address>
    1a2e:	30 91 8b 00 	lds	r19, 0x008B	; 0x80008b <irmp_lgair_address+0x1>
    1a32:	30 93 91 00 	sts	0x0091, r19	; 0x800091 <irmp_tmp_address+0x1>
    1a36:	20 93 90 00 	sts	0x0090, r18	; 0x800090 <irmp_tmp_address>
    1a3a:	90 93 7a 00 	sts	0x007A, r25	; 0x80007a <irmp_start_bit_detected.2331>
    1a3e:	46 cd       	rjmp	.-1396   	; 0x14cc <irmp_ISR+0x962>
    1a40:	10 92 6c 00 	sts	0x006C, r1	; 0x80006c <__data_end>
    1a44:	66 cd       	rjmp	.-1332   	; 0x1512 <irmp_ISR+0x9a8>
    1a46:	8d 30       	cpi	r24, 0x0D	; 13
    1a48:	29 f4       	brne	.+10     	; 0x1a54 <irmp_ISR+0xeea>
    1a4a:	40 91 6c 00 	lds	r20, 0x006C	; 0x80006c <__data_end>
    1a4e:	40 fd       	sbrc	r20, 0
    1a50:	6b cd       	rjmp	.-1322   	; 0x1528 <irmp_ISR+0x9be>
    1a52:	02 c0       	rjmp	.+4      	; 0x1a58 <irmp_ISR+0xeee>
    1a54:	87 32       	cpi	r24, 0x27	; 39
    1a56:	c9 f3       	breq	.-14     	; 0x1a4a <irmp_ISR+0xee0>
    1a58:	41 e0       	ldi	r20, 0x01	; 1
    1a5a:	40 93 9a 00 	sts	0x009A, r20	; 0x80009a <irmp_ir_detected>
    1a5e:	88 30       	cpi	r24, 0x08	; 8
    1a60:	a1 f5       	brne	.+104    	; 0x1aca <irmp_ISR+0xf60>
    1a62:	a9 01       	movw	r20, r18
    1a64:	40 95       	com	r20
    1a66:	50 95       	com	r21
    1a68:	53 70       	andi	r21, 0x03	; 3
    1a6a:	e0 91 70 00 	lds	r30, 0x0070	; 0x800070 <last_irmp_denon_command.2340>
    1a6e:	f0 91 71 00 	lds	r31, 0x0071	; 0x800071 <last_irmp_denon_command.2340+0x1>
    1a72:	4e 17       	cp	r20, r30
    1a74:	5f 07       	cpc	r21, r31
    1a76:	b9 f4       	brne	.+46     	; 0x1aa6 <irmp_ISR+0xf3c>
    1a78:	50 93 8f 00 	sts	0x008F, r21	; 0x80008f <irmp_tmp_command+0x1>
    1a7c:	40 93 8e 00 	sts	0x008E, r20	; 0x80008e <irmp_tmp_command>
    1a80:	10 92 71 00 	sts	0x0071, r1	; 0x800071 <last_irmp_denon_command.2340+0x1>
    1a84:	10 92 70 00 	sts	0x0070, r1	; 0x800070 <last_irmp_denon_command.2340>
    1a88:	80 93 99 00 	sts	0x0099, r24	; 0x800099 <irmp_protocol>
    1a8c:	80 91 90 00 	lds	r24, 0x0090	; 0x800090 <irmp_tmp_address>
    1a90:	90 91 91 00 	lds	r25, 0x0091	; 0x800091 <irmp_tmp_address+0x1>
    1a94:	90 93 98 00 	sts	0x0098, r25	; 0x800098 <irmp_address+0x1>
    1a98:	80 93 97 00 	sts	0x0097, r24	; 0x800097 <irmp_address>
    1a9c:	50 93 96 00 	sts	0x0096, r21	; 0x800096 <irmp_command+0x1>
    1aa0:	40 93 95 00 	sts	0x0095, r20	; 0x800095 <irmp_command>
    1aa4:	45 cd       	rjmp	.-1398   	; 0x1530 <irmp_ISR+0x9c6>
    1aa6:	20 fd       	sbrc	r18, 0
    1aa8:	09 c0       	rjmp	.+18     	; 0x1abc <irmp_ISR+0xf52>
    1aaa:	30 93 71 00 	sts	0x0071, r19	; 0x800071 <last_irmp_denon_command.2340+0x1>
    1aae:	20 93 70 00 	sts	0x0070, r18	; 0x800070 <last_irmp_denon_command.2340>
    1ab2:	10 92 65 00 	sts	0x0065, r1	; 0x800065 <denon_repetition_len.2341+0x1>
    1ab6:	10 92 64 00 	sts	0x0064, r1	; 0x800064 <denon_repetition_len.2341>
    1aba:	04 c0       	rjmp	.+8      	; 0x1ac4 <irmp_ISR+0xf5a>
    1abc:	10 92 71 00 	sts	0x0071, r1	; 0x800071 <last_irmp_denon_command.2340+0x1>
    1ac0:	10 92 70 00 	sts	0x0070, r1	; 0x800070 <last_irmp_denon_command.2340>
    1ac4:	10 92 9a 00 	sts	0x009A, r1	; 0x80009a <irmp_ir_detected>
    1ac8:	33 cd       	rjmp	.-1434   	; 0x1530 <irmp_ISR+0x9c6>
    1aca:	8f 30       	cpi	r24, 0x0F	; 15
    1acc:	29 f4       	brne	.+10     	; 0x1ad8 <irmp_ISR+0xf6e>
    1ace:	2f 3f       	cpi	r18, 0xFF	; 255
    1ad0:	31 40       	sbci	r19, 0x01	; 1
    1ad2:	09 f0       	breq	.+2      	; 0x1ad6 <irmp_ISR+0xf6c>
    1ad4:	7d c0       	rjmp	.+250    	; 0x1bd0 <irmp_ISR+0x1066>
    1ad6:	f6 cf       	rjmp	.-20     	; 0x1ac4 <irmp_ISR+0xf5a>
    1ad8:	80 31       	cpi	r24, 0x10	; 16
    1ada:	69 f4       	brne	.+26     	; 0x1af6 <irmp_ISR+0xf8c>
    1adc:	40 91 90 00 	lds	r20, 0x0090	; 0x800090 <irmp_tmp_address>
    1ae0:	50 91 91 00 	lds	r21, 0x0091	; 0x800091 <irmp_tmp_address+0x1>
    1ae4:	4f 3f       	cpi	r20, 0xFF	; 255
    1ae6:	51 05       	cpc	r21, r1
    1ae8:	09 f0       	breq	.+2      	; 0x1aec <irmp_ISR+0xf82>
    1aea:	72 c0       	rjmp	.+228    	; 0x1bd0 <irmp_ISR+0x1066>
    1aec:	2e 3f       	cpi	r18, 0xFE	; 254
    1aee:	31 05       	cpc	r19, r1
    1af0:	09 f0       	breq	.+2      	; 0x1af4 <irmp_ISR+0xf8a>
    1af2:	6e c0       	rjmp	.+220    	; 0x1bd0 <irmp_ISR+0x1066>
    1af4:	e7 cf       	rjmp	.-50     	; 0x1ac4 <irmp_ISR+0xf5a>
    1af6:	82 30       	cpi	r24, 0x02	; 2
    1af8:	01 f5       	brne	.+64     	; 0x1b3a <irmp_ISR+0xfd0>
    1afa:	91 11       	cpse	r25, r1
    1afc:	69 c0       	rjmp	.+210    	; 0x1bd0 <irmp_ISR+0x1066>
    1afe:	20 91 72 00 	lds	r18, 0x0072	; 0x800072 <key_repetition_len.2338>
    1b02:	30 91 73 00 	lds	r19, 0x0073	; 0x800073 <key_repetition_len.2338+0x1>
    1b06:	28 30       	cpi	r18, 0x08	; 8
    1b08:	37 40       	sbci	r19, 0x07	; 7
    1b0a:	08 f0       	brcs	.+2      	; 0x1b0e <irmp_ISR+0xfa4>
    1b0c:	5b c0       	rjmp	.+182    	; 0x1bc4 <irmp_ISR+0x105a>
    1b0e:	20 91 62 00 	lds	r18, 0x0062	; 0x800062 <last_irmp_address.2336>
    1b12:	30 91 63 00 	lds	r19, 0x0063	; 0x800063 <last_irmp_address.2336+0x1>
    1b16:	30 93 91 00 	sts	0x0091, r19	; 0x800091 <irmp_tmp_address+0x1>
    1b1a:	20 93 90 00 	sts	0x0090, r18	; 0x800090 <irmp_tmp_address>
    1b1e:	70 93 8f 00 	sts	0x008F, r23	; 0x80008f <irmp_tmp_command+0x1>
    1b22:	60 93 8e 00 	sts	0x008E, r22	; 0x80008e <irmp_tmp_command>
    1b26:	90 91 92 00 	lds	r25, 0x0092	; 0x800092 <irmp_flags>
    1b2a:	91 60       	ori	r25, 0x01	; 1
    1b2c:	90 93 92 00 	sts	0x0092, r25	; 0x800092 <irmp_flags>
    1b30:	10 92 73 00 	sts	0x0073, r1	; 0x800073 <key_repetition_len.2338+0x1>
    1b34:	10 92 72 00 	sts	0x0072, r1	; 0x800072 <key_repetition_len.2338>
    1b38:	4b c0       	rjmp	.+150    	; 0x1bd0 <irmp_ISR+0x1066>
    1b3a:	85 30       	cpi	r24, 0x05	; 5
    1b3c:	79 f5       	brne	.+94     	; 0x1b9c <irmp_ISR+0x1032>
    1b3e:	30 91 7e 00 	lds	r19, 0x007E	; 0x80007e <xor_check>
    1b42:	90 91 7f 00 	lds	r25, 0x007F	; 0x80007f <xor_check+0x1>
    1b46:	e0 91 80 00 	lds	r30, 0x0080	; 0x800080 <xor_check+0x2>
    1b4a:	23 2f       	mov	r18, r19
    1b4c:	2f 70       	andi	r18, 0x0F	; 15
    1b4e:	32 95       	swap	r19
    1b50:	3f 70       	andi	r19, 0x0F	; 15
    1b52:	32 27       	eor	r19, r18
    1b54:	29 2f       	mov	r18, r25
    1b56:	2f 70       	andi	r18, 0x0F	; 15
    1b58:	23 27       	eor	r18, r19
    1b5a:	92 95       	swap	r25
    1b5c:	9f 70       	andi	r25, 0x0F	; 15
    1b5e:	29 27       	eor	r18, r25
    1b60:	02 2e       	mov	r0, r18
    1b62:	00 0c       	add	r0, r0
    1b64:	33 0b       	sbc	r19, r19
    1b66:	4e 2f       	mov	r20, r30
    1b68:	4f 70       	andi	r20, 0x0F	; 15
    1b6a:	50 e0       	ldi	r21, 0x00	; 0
    1b6c:	24 17       	cp	r18, r20
    1b6e:	35 07       	cpc	r19, r21
    1b70:	11 f0       	breq	.+4      	; 0x1b76 <irmp_ISR+0x100c>
    1b72:	10 92 9a 00 	sts	0x009A, r1	; 0x80009a <irmp_ir_detected>
    1b76:	90 91 81 00 	lds	r25, 0x0081	; 0x800081 <xor_check+0x3>
    1b7a:	9e 27       	eor	r25, r30
    1b7c:	20 91 82 00 	lds	r18, 0x0082	; 0x800082 <xor_check+0x4>
    1b80:	92 27       	eor	r25, r18
    1b82:	20 91 83 00 	lds	r18, 0x0083	; 0x800083 <xor_check+0x5>
    1b86:	92 13       	cpse	r25, r18
    1b88:	10 92 9a 00 	sts	0x009A, r1	; 0x80009a <irmp_ir_detected>
    1b8c:	20 91 92 00 	lds	r18, 0x0092	; 0x800092 <irmp_flags>
    1b90:	90 91 7d 00 	lds	r25, 0x007D	; 0x80007d <genre2>
    1b94:	92 2b       	or	r25, r18
    1b96:	90 93 92 00 	sts	0x0092, r25	; 0x800092 <irmp_flags>
    1b9a:	1a c0       	rjmp	.+52     	; 0x1bd0 <irmp_ISR+0x1066>
    1b9c:	81 33       	cpi	r24, 0x31	; 49
    1b9e:	a9 f4       	brne	.+42     	; 0x1bca <irmp_ISR+0x1060>
    1ba0:	43 2f       	mov	r20, r19
    1ba2:	40 95       	com	r20
    1ba4:	50 e0       	ldi	r21, 0x00	; 0
    1ba6:	33 27       	eor	r19, r19
    1ba8:	42 17       	cp	r20, r18
    1baa:	53 07       	cpc	r21, r19
    1bac:	29 f4       	brne	.+10     	; 0x1bb8 <irmp_ISR+0x104e>
    1bae:	50 93 8f 00 	sts	0x008F, r21	; 0x80008f <irmp_tmp_command+0x1>
    1bb2:	40 93 8e 00 	sts	0x008E, r20	; 0x80008e <irmp_tmp_command>
    1bb6:	02 c0       	rjmp	.+4      	; 0x1bbc <irmp_ISR+0x1052>
    1bb8:	10 92 7c 00 	sts	0x007C, r1	; 0x80007c <mitsu_parity>
    1bbc:	90 91 7c 00 	lds	r25, 0x007C	; 0x80007c <mitsu_parity>
    1bc0:	91 11       	cpse	r25, r1
    1bc2:	06 c0       	rjmp	.+12     	; 0x1bd0 <irmp_ISR+0x1066>
    1bc4:	10 92 9a 00 	sts	0x009A, r1	; 0x80009a <irmp_ir_detected>
    1bc8:	03 c0       	rjmp	.+6      	; 0x1bd0 <irmp_ISR+0x1066>
    1bca:	89 30       	cpi	r24, 0x09	; 9
    1bcc:	09 f4       	brne	.+2      	; 0x1bd0 <irmp_ISR+0x1066>
    1bce:	5a c0       	rjmp	.+180    	; 0x1c84 <irmp_ISR+0x111a>
    1bd0:	80 93 99 00 	sts	0x0099, r24	; 0x800099 <irmp_protocol>
    1bd4:	20 91 90 00 	lds	r18, 0x0090	; 0x800090 <irmp_tmp_address>
    1bd8:	30 91 91 00 	lds	r19, 0x0091	; 0x800091 <irmp_tmp_address+0x1>
    1bdc:	30 93 98 00 	sts	0x0098, r19	; 0x800098 <irmp_address+0x1>
    1be0:	20 93 97 00 	sts	0x0097, r18	; 0x800097 <irmp_address>
    1be4:	82 30       	cpi	r24, 0x02	; 2
    1be6:	29 f4       	brne	.+10     	; 0x1bf2 <irmp_ISR+0x1088>
    1be8:	30 93 63 00 	sts	0x0063, r19	; 0x800063 <last_irmp_address.2336+0x1>
    1bec:	20 93 62 00 	sts	0x0062, r18	; 0x800062 <last_irmp_address.2336>
    1bf0:	0d c0       	rjmp	.+26     	; 0x1c0c <irmp_ISR+0x10a2>
    1bf2:	87 30       	cpi	r24, 0x07	; 7
    1bf4:	59 f4       	brne	.+22     	; 0x1c0c <irmp_ISR+0x10a2>
    1bf6:	20 91 74 00 	lds	r18, 0x0074	; 0x800074 <rc5_cmd_bit6.2342>
    1bfa:	80 91 8e 00 	lds	r24, 0x008E	; 0x80008e <irmp_tmp_command>
    1bfe:	90 91 8f 00 	lds	r25, 0x008F	; 0x80008f <irmp_tmp_command+0x1>
    1c02:	82 2b       	or	r24, r18
    1c04:	90 93 8f 00 	sts	0x008F, r25	; 0x80008f <irmp_tmp_command+0x1>
    1c08:	80 93 8e 00 	sts	0x008E, r24	; 0x80008e <irmp_tmp_command>
    1c0c:	80 91 8e 00 	lds	r24, 0x008E	; 0x80008e <irmp_tmp_command>
    1c10:	90 91 8f 00 	lds	r25, 0x008F	; 0x80008f <irmp_tmp_command+0x1>
    1c14:	90 93 96 00 	sts	0x0096, r25	; 0x800096 <irmp_command+0x1>
    1c18:	80 93 95 00 	sts	0x0095, r24	; 0x800095 <irmp_command>
    1c1c:	80 91 84 00 	lds	r24, 0x0084	; 0x800084 <irmp_tmp_id>
    1c20:	90 91 85 00 	lds	r25, 0x0085	; 0x800085 <irmp_tmp_id+0x1>
    1c24:	90 93 94 00 	sts	0x0094, r25	; 0x800094 <irmp_id+0x1>
    1c28:	80 93 93 00 	sts	0x0093, r24	; 0x800093 <irmp_id>
    1c2c:	81 cc       	rjmp	.-1790   	; 0x1530 <irmp_ISR+0x9c6>
    1c2e:	20 91 8e 00 	lds	r18, 0x008E	; 0x80008e <irmp_tmp_command>
    1c32:	30 91 8f 00 	lds	r19, 0x008F	; 0x80008f <irmp_tmp_command+0x1>
    1c36:	40 91 90 00 	lds	r20, 0x0090	; 0x800090 <irmp_tmp_address>
    1c3a:	50 91 91 00 	lds	r21, 0x0091	; 0x800091 <irmp_tmp_address+0x1>
    1c3e:	62 17       	cp	r22, r18
    1c40:	73 07       	cpc	r23, r19
    1c42:	99 f4       	brne	.+38     	; 0x1c6a <irmp_ISR+0x1100>
    1c44:	80 91 62 00 	lds	r24, 0x0062	; 0x800062 <last_irmp_address.2336>
    1c48:	90 91 63 00 	lds	r25, 0x0063	; 0x800063 <last_irmp_address.2336+0x1>
    1c4c:	84 17       	cp	r24, r20
    1c4e:	95 07       	cpc	r25, r21
    1c50:	61 f4       	brne	.+24     	; 0x1c6a <irmp_ISR+0x1100>
    1c52:	80 91 72 00 	lds	r24, 0x0072	; 0x800072 <key_repetition_len.2338>
    1c56:	90 91 73 00 	lds	r25, 0x0073	; 0x800073 <key_repetition_len.2338+0x1>
    1c5a:	8a 3c       	cpi	r24, 0xCA	; 202
    1c5c:	98 40       	sbci	r25, 0x08	; 8
    1c5e:	28 f4       	brcc	.+10     	; 0x1c6a <irmp_ISR+0x1100>
    1c60:	80 91 92 00 	lds	r24, 0x0092	; 0x800092 <irmp_flags>
    1c64:	81 60       	ori	r24, 0x01	; 1
    1c66:	80 93 92 00 	sts	0x0092, r24	; 0x800092 <irmp_flags>
    1c6a:	50 93 63 00 	sts	0x0063, r21	; 0x800063 <last_irmp_address.2336+0x1>
    1c6e:	40 93 62 00 	sts	0x0062, r20	; 0x800062 <last_irmp_address.2336>
    1c72:	30 93 61 00 	sts	0x0061, r19	; 0x800061 <__DATA_REGION_ORIGIN__+0x1>
    1c76:	20 93 60 00 	sts	0x0060, r18	; 0x800060 <__DATA_REGION_ORIGIN__>
    1c7a:	10 92 73 00 	sts	0x0073, r1	; 0x800073 <key_repetition_len.2338+0x1>
    1c7e:	10 92 72 00 	sts	0x0072, r1	; 0x800072 <key_repetition_len.2338>
    1c82:	5a cc       	rjmp	.-1868   	; 0x1538 <irmp_ISR+0x9ce>
    1c84:	94 32       	cpi	r25, 0x24	; 36
    1c86:	09 f0       	breq	.+2      	; 0x1c8a <irmp_ISR+0x1120>
    1c88:	a3 cf       	rjmp	.-186    	; 0x1bd0 <irmp_ISR+0x1066>
    1c8a:	95 e1       	ldi	r25, 0x15	; 21
    1c8c:	90 93 99 00 	sts	0x0099, r25	; 0x800099 <irmp_protocol>
    1c90:	a1 cf       	rjmp	.-190    	; 0x1bd4 <irmp_ISR+0x106a>

00001c92 <bitsrevervse>:
    1c92:	9c 01       	movw	r18, r24
    1c94:	80 e0       	ldi	r24, 0x00	; 0
    1c96:	90 e0       	ldi	r25, 0x00	; 0
    1c98:	66 23       	and	r22, r22
    1c9a:	41 f0       	breq	.+16     	; 0x1cac <bitsrevervse+0x1a>
    1c9c:	88 0f       	add	r24, r24
    1c9e:	99 1f       	adc	r25, r25
    1ca0:	20 fd       	sbrc	r18, 0
    1ca2:	81 60       	ori	r24, 0x01	; 1
    1ca4:	36 95       	lsr	r19
    1ca6:	27 95       	ror	r18
    1ca8:	61 50       	subi	r22, 0x01	; 1
    1caa:	f6 cf       	rjmp	.-20     	; 0x1c98 <bitsrevervse+0x6>
    1cac:	08 95       	ret

00001cae <irsnd_on>:
    1cae:	80 91 df 00 	lds	r24, 0x00DF	; 0x8000df <irsnd_is_on>
    1cb2:	81 11       	cpse	r24, r1
    1cb4:	0e c0       	rjmp	.+28     	; 0x1cd2 <irsnd_on+0x24>
    1cb6:	85 b5       	in	r24, 0x25	; 37
    1cb8:	88 61       	ori	r24, 0x18	; 24
    1cba:	85 bd       	out	0x25, r24	; 37
    1cbc:	e0 91 d0 00 	lds	r30, 0x00D0	; 0x8000d0 <irsnd_callback_ptr>
    1cc0:	f0 91 d1 00 	lds	r31, 0x00D1	; 0x8000d1 <irsnd_callback_ptr+0x1>
    1cc4:	30 97       	sbiw	r30, 0x00	; 0
    1cc6:	11 f0       	breq	.+4      	; 0x1ccc <irsnd_on+0x1e>
    1cc8:	81 e0       	ldi	r24, 0x01	; 1
    1cca:	09 95       	icall
    1ccc:	81 e0       	ldi	r24, 0x01	; 1
    1cce:	80 93 df 00 	sts	0x00DF, r24	; 0x8000df <irsnd_is_on>
    1cd2:	08 95       	ret

00001cd4 <irsnd_off>:
    1cd4:	80 91 df 00 	lds	r24, 0x00DF	; 0x8000df <irsnd_is_on>
    1cd8:	88 23       	and	r24, r24
    1cda:	71 f0       	breq	.+28     	; 0x1cf8 <irsnd_off+0x24>
    1cdc:	85 b5       	in	r24, 0x25	; 37
    1cde:	8f 7e       	andi	r24, 0xEF	; 239
    1ce0:	85 bd       	out	0x25, r24	; 37
    1ce2:	97 98       	cbi	0x12, 7	; 18
    1ce4:	e0 91 d0 00 	lds	r30, 0x00D0	; 0x8000d0 <irsnd_callback_ptr>
    1ce8:	f0 91 d1 00 	lds	r31, 0x00D1	; 0x8000d1 <irsnd_callback_ptr+0x1>
    1cec:	30 97       	sbiw	r30, 0x00	; 0
    1cee:	11 f0       	breq	.+4      	; 0x1cf4 <irsnd_off+0x20>
    1cf0:	80 e0       	ldi	r24, 0x00	; 0
    1cf2:	09 95       	icall
    1cf4:	10 92 df 00 	sts	0x00DF, r1	; 0x8000df <irsnd_is_on>
    1cf8:	08 95       	ret

00001cfa <irsnd_init>:
    1cfa:	97 98       	cbi	0x12, 7	; 18
    1cfc:	8f 9a       	sbi	0x11, 7	; 17
    1cfe:	88 e0       	ldi	r24, 0x08	; 8
    1d00:	85 bd       	out	0x25, r24	; 37
    1d02:	85 b5       	in	r24, 0x25	; 37
    1d04:	81 60       	ori	r24, 0x01	; 1
    1d06:	85 bd       	out	0x25, r24	; 37
    1d08:	85 ea       	ldi	r24, 0xA5	; 165
    1d0a:	83 bd       	out	0x23, r24	; 35
    1d0c:	08 95       	ret

00001d0e <irsnd_set_callback_ptr>:
    1d0e:	90 93 d1 00 	sts	0x00D1, r25	; 0x8000d1 <irsnd_callback_ptr+0x1>
    1d12:	80 93 d0 00 	sts	0x00D0, r24	; 0x8000d0 <irsnd_callback_ptr>
    1d16:	08 95       	ret

00001d18 <irsnd_send_data>:
    1d18:	ff 92       	push	r15
    1d1a:	0f 93       	push	r16
    1d1c:	1f 93       	push	r17
    1d1e:	cf 93       	push	r28
    1d20:	df 93       	push	r29
    1d22:	ec 01       	movw	r28, r24
    1d24:	66 23       	and	r22, r22
    1d26:	29 f0       	breq	.+10     	; 0x1d32 <irsnd_send_data+0x1a>
    1d28:	80 91 e0 00 	lds	r24, 0x00E0	; 0x8000e0 <irsnd_busy>
    1d2c:	81 11       	cpse	r24, r1
    1d2e:	fc cf       	rjmp	.-8      	; 0x1d28 <irsnd_send_data+0x10>
    1d30:	04 c0       	rjmp	.+8      	; 0x1d3a <irsnd_send_data+0x22>
    1d32:	80 91 e0 00 	lds	r24, 0x00E0	; 0x8000e0 <irsnd_busy>
    1d36:	81 11       	cpse	r24, r1
    1d38:	14 c4       	rjmp	.+2088   	; 0x2562 <irsnd_send_data+0x84a>
    1d3a:	88 81       	ld	r24, Y
    1d3c:	80 93 de 00 	sts	0x00DE, r24	; 0x8000de <irsnd_protocol>
    1d40:	fd 80       	ldd	r15, Y+5	; 0x05
    1d42:	8f 2d       	mov	r24, r15
    1d44:	8f 70       	andi	r24, 0x0F	; 15
    1d46:	80 93 d2 00 	sts	0x00D2, r24	; 0x8000d2 <irsnd_repeat>
    1d4a:	e0 91 de 00 	lds	r30, 0x00DE	; 0x8000de <irsnd_protocol>
    1d4e:	4e 2f       	mov	r20, r30
    1d50:	50 e0       	ldi	r21, 0x00	; 0
    1d52:	fa 01       	movw	r30, r20
    1d54:	31 97       	sbiw	r30, 0x01	; 1
    1d56:	ec 33       	cpi	r30, 0x3C	; 60
    1d58:	f1 05       	cpc	r31, r1
    1d5a:	08 f0       	brcs	.+2      	; 0x1d5e <irsnd_send_data+0x46>
    1d5c:	ff c3       	rjmp	.+2046   	; 0x255c <irsnd_send_data+0x844>
    1d5e:	ee 59       	subi	r30, 0x9E	; 158
    1d60:	ff 4f       	sbci	r31, 0xFF	; 255
    1d62:	0c 94 d3 1b 	jmp	0x37a6	; 0x37a6 <__tablejump2__>
    1d66:	8a 81       	ldd	r24, Y+2	; 0x02
    1d68:	80 93 cf 00 	sts	0x00CF, r24	; 0x8000cf <sircs_additional_bitlen>
    1d6c:	84 30       	cpi	r24, 0x04	; 4
    1d6e:	18 f0       	brcs	.+6      	; 0x1d76 <irsnd_send_data+0x5e>
    1d70:	1d ef       	ldi	r17, 0xFD	; 253
    1d72:	18 0f       	add	r17, r24
    1d74:	01 c0       	rjmp	.+2      	; 0x1d78 <irsnd_send_data+0x60>
    1d76:	10 e0       	ldi	r17, 0x00	; 0
    1d78:	6f e0       	ldi	r22, 0x0F	; 15
    1d7a:	8b 81       	ldd	r24, Y+3	; 0x03
    1d7c:	9c 81       	ldd	r25, Y+4	; 0x04
    1d7e:	0e 94 49 0e 	call	0x1c92	; 0x1c92 <bitsrevervse>
    1d82:	9c 01       	movw	r18, r24
    1d84:	20 78       	andi	r18, 0x80	; 128
    1d86:	3f 77       	andi	r19, 0x7F	; 127
    1d88:	22 0f       	add	r18, r18
    1d8a:	23 2f       	mov	r18, r19
    1d8c:	22 1f       	adc	r18, r18
    1d8e:	33 0b       	sbc	r19, r19
    1d90:	31 95       	neg	r19
    1d92:	20 93 d3 00 	sts	0x00D3, r18	; 0x8000d3 <irsnd_buffer>
    1d96:	88 0f       	add	r24, r24
    1d98:	80 93 d4 00 	sts	0x00D4, r24	; 0x8000d4 <irsnd_buffer+0x1>
    1d9c:	11 23       	and	r17, r17
    1d9e:	09 f4       	brne	.+2      	; 0x1da2 <irsnd_send_data+0x8a>
    1da0:	da c3       	rjmp	.+1972   	; 0x2556 <irsnd_send_data+0x83e>
    1da2:	65 e0       	ldi	r22, 0x05	; 5
    1da4:	89 81       	ldd	r24, Y+1	; 0x01
    1da6:	9a 81       	ldd	r25, Y+2	; 0x02
    1da8:	0e 94 49 0e 	call	0x1c92	; 0x1c92 <bitsrevervse>
    1dac:	20 91 d4 00 	lds	r18, 0x00D4	; 0x8000d4 <irsnd_buffer+0x1>
    1db0:	84 fb       	bst	r24, 4
    1db2:	99 27       	eor	r25, r25
    1db4:	90 f9       	bld	r25, 0
    1db6:	92 2b       	or	r25, r18
    1db8:	90 93 d4 00 	sts	0x00D4, r25	; 0x8000d4 <irsnd_buffer+0x1>
    1dbc:	82 95       	swap	r24
    1dbe:	80 7f       	andi	r24, 0xF0	; 240
    1dc0:	c2 c3       	rjmp	.+1924   	; 0x2546 <irsnd_send_data+0x82e>
    1dc2:	20 e0       	ldi	r18, 0x00	; 0
    1dc4:	30 e0       	ldi	r19, 0x00	; 0
    1dc6:	39 81       	ldd	r19, Y+1	; 0x01
    1dc8:	8b 81       	ldd	r24, Y+3	; 0x03
    1dca:	9c 81       	ldd	r25, Y+4	; 0x04
    1dcc:	e9 01       	movw	r28, r18
    1dce:	c8 2b       	or	r28, r24
    1dd0:	d9 2b       	or	r29, r25
    1dd2:	60 e1       	ldi	r22, 0x10	; 16
    1dd4:	8e ee       	ldi	r24, 0xEE	; 238
    1dd6:	97 e8       	ldi	r25, 0x87	; 135
    1dd8:	0e 94 49 0e 	call	0x1c92	; 0x1c92 <bitsrevervse>
    1ddc:	18 2f       	mov	r17, r24
    1dde:	09 2f       	mov	r16, r25
    1de0:	60 e1       	ldi	r22, 0x10	; 16
    1de2:	ce 01       	movw	r24, r28
    1de4:	0e 94 49 0e 	call	0x1c92	; 0x1c92 <bitsrevervse>
    1de8:	22 e0       	ldi	r18, 0x02	; 2
    1dea:	20 93 de 00 	sts	0x00DE, r18	; 0x8000de <irsnd_protocol>
    1dee:	2a c0       	rjmp	.+84     	; 0x1e44 <irsnd_send_data+0x12c>
    1df0:	f4 fe       	sbrs	r15, 4
    1df2:	06 c0       	rjmp	.+12     	; 0x1e00 <irsnd_send_data+0xe8>
    1df4:	8f ef       	ldi	r24, 0xFF	; 255
    1df6:	80 93 de 00 	sts	0x00DE, r24	; 0x8000de <irsnd_protocol>
    1dfa:	10 92 d3 00 	sts	0x00D3, r1	; 0x8000d3 <irsnd_buffer>
    1dfe:	ab c3       	rjmp	.+1878   	; 0x2556 <irsnd_send_data+0x83e>
    1e00:	60 e1       	ldi	r22, 0x10	; 16
    1e02:	89 81       	ldd	r24, Y+1	; 0x01
    1e04:	9a 81       	ldd	r25, Y+2	; 0x02
    1e06:	0e 94 49 0e 	call	0x1c92	; 0x1c92 <bitsrevervse>
    1e0a:	18 2f       	mov	r17, r24
    1e0c:	09 2f       	mov	r16, r25
    1e0e:	60 e1       	ldi	r22, 0x10	; 16
    1e10:	8b 81       	ldd	r24, Y+3	; 0x03
    1e12:	9c 81       	ldd	r25, Y+4	; 0x04
    1e14:	0e 94 49 0e 	call	0x1c92	; 0x1c92 <bitsrevervse>
    1e18:	00 93 d3 00 	sts	0x00D3, r16	; 0x8000d3 <irsnd_buffer>
    1e1c:	10 93 d4 00 	sts	0x00D4, r17	; 0x8000d4 <irsnd_buffer+0x1>
    1e20:	90 93 d5 00 	sts	0x00D5, r25	; 0x8000d5 <irsnd_buffer+0x2>
    1e24:	90 95       	com	r25
    1e26:	90 93 d6 00 	sts	0x00D6, r25	; 0x8000d6 <irsnd_buffer+0x3>
    1e2a:	95 c3       	rjmp	.+1834   	; 0x2556 <irsnd_send_data+0x83e>
    1e2c:	60 e1       	ldi	r22, 0x10	; 16
    1e2e:	89 81       	ldd	r24, Y+1	; 0x01
    1e30:	9a 81       	ldd	r25, Y+2	; 0x02
    1e32:	0e 94 49 0e 	call	0x1c92	; 0x1c92 <bitsrevervse>
    1e36:	18 2f       	mov	r17, r24
    1e38:	09 2f       	mov	r16, r25
    1e3a:	60 e1       	ldi	r22, 0x10	; 16
    1e3c:	8b 81       	ldd	r24, Y+3	; 0x03
    1e3e:	9c 81       	ldd	r25, Y+4	; 0x04
    1e40:	0e 94 49 0e 	call	0x1c92	; 0x1c92 <bitsrevervse>
    1e44:	00 93 d3 00 	sts	0x00D3, r16	; 0x8000d3 <irsnd_buffer>
    1e48:	10 93 d4 00 	sts	0x00D4, r17	; 0x8000d4 <irsnd_buffer+0x1>
    1e4c:	90 93 d5 00 	sts	0x00D5, r25	; 0x8000d5 <irsnd_buffer+0x2>
    1e50:	ac c2       	rjmp	.+1368   	; 0x23aa <irsnd_send_data+0x692>
    1e52:	68 e0       	ldi	r22, 0x08	; 8
    1e54:	89 81       	ldd	r24, Y+1	; 0x01
    1e56:	9a 81       	ldd	r25, Y+2	; 0x02
    1e58:	0e 94 49 0e 	call	0x1c92	; 0x1c92 <bitsrevervse>
    1e5c:	18 2f       	mov	r17, r24
    1e5e:	68 e0       	ldi	r22, 0x08	; 8
    1e60:	8b 81       	ldd	r24, Y+3	; 0x03
    1e62:	9c 81       	ldd	r25, Y+4	; 0x04
    1e64:	0e 94 49 0e 	call	0x1c92	; 0x1c92 <bitsrevervse>
    1e68:	3f c3       	rjmp	.+1662   	; 0x24e8 <irsnd_send_data+0x7d0>
    1e6a:	6d e0       	ldi	r22, 0x0D	; 13
    1e6c:	89 81       	ldd	r24, Y+1	; 0x01
    1e6e:	9a 81       	ldd	r25, Y+2	; 0x02
    1e70:	0e 94 49 0e 	call	0x1c92	; 0x1c92 <bitsrevervse>
    1e74:	8c 01       	movw	r16, r24
    1e76:	68 e0       	ldi	r22, 0x08	; 8
    1e78:	8b 81       	ldd	r24, Y+3	; 0x03
    1e7a:	9c 81       	ldd	r25, Y+4	; 0x04
    1e7c:	0e 94 49 0e 	call	0x1c92	; 0x1c92 <bitsrevervse>
    1e80:	98 01       	movw	r18, r16
    1e82:	20 7e       	andi	r18, 0xE0	; 224
    1e84:	3f 71       	andi	r19, 0x1F	; 31
    1e86:	a5 e0       	ldi	r26, 0x05	; 5
    1e88:	36 95       	lsr	r19
    1e8a:	27 95       	ror	r18
    1e8c:	aa 95       	dec	r26
    1e8e:	e1 f7       	brne	.-8      	; 0x1e88 <irsnd_send_data+0x170>
    1e90:	20 93 d3 00 	sts	0x00D3, r18	; 0x8000d3 <irsnd_buffer>
    1e94:	98 01       	movw	r18, r16
    1e96:	20 95       	com	r18
    1e98:	30 95       	com	r19
    1e9a:	a9 01       	movw	r20, r18
    1e9c:	44 27       	eor	r20, r20
    1e9e:	5c 71       	andi	r21, 0x1C	; 28
    1ea0:	45 2f       	mov	r20, r21
    1ea2:	46 95       	lsr	r20
    1ea4:	46 95       	lsr	r20
    1ea6:	50 2f       	mov	r21, r16
    1ea8:	55 0f       	add	r21, r21
    1eaa:	55 0f       	add	r21, r21
    1eac:	55 0f       	add	r21, r21
    1eae:	45 2b       	or	r20, r21
    1eb0:	40 93 d4 00 	sts	0x00D4, r20	; 0x8000d4 <irsnd_buffer+0x1>
    1eb4:	2c 7f       	andi	r18, 0xFC	; 252
    1eb6:	33 70       	andi	r19, 0x03	; 3
    1eb8:	36 95       	lsr	r19
    1eba:	27 95       	ror	r18
    1ebc:	36 95       	lsr	r19
    1ebe:	27 95       	ror	r18
    1ec0:	20 93 d5 00 	sts	0x00D5, r18	; 0x8000d5 <irsnd_buffer+0x2>
    1ec4:	00 95       	com	r16
    1ec6:	02 95       	swap	r16
    1ec8:	00 0f       	add	r16, r16
    1eca:	00 0f       	add	r16, r16
    1ecc:	00 7c       	andi	r16, 0xC0	; 192
    1ece:	9c 01       	movw	r18, r24
    1ed0:	2c 7f       	andi	r18, 0xFC	; 252
    1ed2:	33 27       	eor	r19, r19
    1ed4:	36 95       	lsr	r19
    1ed6:	27 95       	ror	r18
    1ed8:	36 95       	lsr	r19
    1eda:	27 95       	ror	r18
    1edc:	02 2b       	or	r16, r18
    1ede:	00 93 d6 00 	sts	0x00D6, r16	; 0x8000d6 <irsnd_buffer+0x3>
    1ee2:	9c 01       	movw	r18, r24
    1ee4:	20 95       	com	r18
    1ee6:	30 95       	com	r19
    1ee8:	2c 7f       	andi	r18, 0xFC	; 252
    1eea:	33 27       	eor	r19, r19
    1eec:	36 95       	lsr	r19
    1eee:	27 95       	ror	r18
    1ef0:	36 95       	lsr	r19
    1ef2:	27 95       	ror	r18
    1ef4:	98 2f       	mov	r25, r24
    1ef6:	92 95       	swap	r25
    1ef8:	99 0f       	add	r25, r25
    1efa:	99 0f       	add	r25, r25
    1efc:	90 7c       	andi	r25, 0xC0	; 192
    1efe:	29 2b       	or	r18, r25
    1f00:	20 93 d7 00 	sts	0x00D7, r18	; 0x8000d7 <irsnd_buffer+0x4>
    1f04:	80 95       	com	r24
    1f06:	82 95       	swap	r24
    1f08:	88 0f       	add	r24, r24
    1f0a:	88 0f       	add	r24, r24
    1f0c:	80 7c       	andi	r24, 0xC0	; 192
    1f0e:	d9 c0       	rjmp	.+434    	; 0x20c2 <irsnd_send_data+0x3aa>
    1f10:	8b 81       	ldd	r24, Y+3	; 0x03
    1f12:	1f c3       	rjmp	.+1598   	; 0x2552 <irsnd_send_data+0x83a>
    1f14:	8b 81       	ldd	r24, Y+3	; 0x03
    1f16:	9c 81       	ldd	r25, Y+4	; 0x04
    1f18:	29 81       	ldd	r18, Y+1	; 0x01
    1f1a:	20 93 d3 00 	sts	0x00D3, r18	; 0x8000d3 <irsnd_buffer>
    1f1e:	90 93 d4 00 	sts	0x00D4, r25	; 0x8000d4 <irsnd_buffer+0x1>
    1f22:	80 93 d5 00 	sts	0x00D5, r24	; 0x8000d5 <irsnd_buffer+0x2>
    1f26:	9c 01       	movw	r18, r24
    1f28:	22 27       	eor	r18, r18
    1f2a:	3f 70       	andi	r19, 0x0F	; 15
    1f2c:	29 2f       	mov	r18, r25
    1f2e:	22 95       	swap	r18
    1f30:	2f 70       	andi	r18, 0x0F	; 15
    1f32:	28 0f       	add	r18, r24
    1f34:	23 0f       	add	r18, r19
    1f36:	80 7f       	andi	r24, 0xF0	; 240
    1f38:	99 27       	eor	r25, r25
    1f3a:	f4 e0       	ldi	r31, 0x04	; 4
    1f3c:	96 95       	lsr	r25
    1f3e:	87 95       	ror	r24
    1f40:	fa 95       	dec	r31
    1f42:	e1 f7       	brne	.-8      	; 0x1f3c <irsnd_send_data+0x224>
    1f44:	82 0f       	add	r24, r18
    1f46:	82 95       	swap	r24
    1f48:	80 7f       	andi	r24, 0xF0	; 240
    1f4a:	2f c2       	rjmp	.+1118   	; 0x23aa <irsnd_send_data+0x692>
    1f4c:	60 e1       	ldi	r22, 0x10	; 16
    1f4e:	89 81       	ldd	r24, Y+1	; 0x01
    1f50:	9a 81       	ldd	r25, Y+2	; 0x02
    1f52:	0e 94 49 0e 	call	0x1c92	; 0x1c92 <bitsrevervse>
    1f56:	18 2f       	mov	r17, r24
    1f58:	09 2f       	mov	r16, r25
    1f5a:	60 e1       	ldi	r22, 0x10	; 16
    1f5c:	8b 81       	ldd	r24, Y+3	; 0x03
    1f5e:	9c 81       	ldd	r25, Y+4	; 0x04
    1f60:	0e 94 49 0e 	call	0x1c92	; 0x1c92 <bitsrevervse>
    1f64:	00 93 d3 00 	sts	0x00D3, r16	; 0x8000d3 <irsnd_buffer>
    1f68:	10 93 d4 00 	sts	0x00D4, r17	; 0x8000d4 <irsnd_buffer+0x1>
    1f6c:	38 2f       	mov	r19, r24
    1f6e:	30 7f       	andi	r19, 0xF0	; 240
    1f70:	29 2f       	mov	r18, r25
    1f72:	22 95       	swap	r18
    1f74:	2f 70       	andi	r18, 0x0F	; 15
    1f76:	23 2b       	or	r18, r19
    1f78:	20 93 d5 00 	sts	0x00D5, r18	; 0x8000d5 <irsnd_buffer+0x2>
    1f7c:	9c 01       	movw	r18, r24
    1f7e:	22 27       	eor	r18, r18
    1f80:	3f 70       	andi	r19, 0x0F	; 15
    1f82:	88 27       	eor	r24, r24
    1f84:	90 7f       	andi	r25, 0xF0	; 240
    1f86:	80 95       	com	r24
    1f88:	90 95       	com	r25
    1f8a:	49 2f       	mov	r20, r25
    1f8c:	42 95       	swap	r20
    1f8e:	4f 70       	andi	r20, 0x0F	; 15
    1f90:	c9 01       	movw	r24, r18
    1f92:	74 e0       	ldi	r23, 0x04	; 4
    1f94:	96 95       	lsr	r25
    1f96:	87 95       	ror	r24
    1f98:	7a 95       	dec	r23
    1f9a:	e1 f7       	brne	.-8      	; 0x1f94 <irsnd_send_data+0x27c>
    1f9c:	84 2b       	or	r24, r20
    1f9e:	80 93 d6 00 	sts	0x00D6, r24	; 0x8000d6 <irsnd_buffer+0x3>
    1fa2:	20 95       	com	r18
    1fa4:	30 95       	com	r19
    1fa6:	e4 e0       	ldi	r30, 0x04	; 4
    1fa8:	36 95       	lsr	r19
    1faa:	27 95       	ror	r18
    1fac:	ea 95       	dec	r30
    1fae:	e1 f7       	brne	.-8      	; 0x1fa8 <irsnd_send_data+0x290>
    1fb0:	20 7f       	andi	r18, 0xF0	; 240
    1fb2:	20 93 d7 00 	sts	0x00D7, r18	; 0x8000d7 <irsnd_buffer+0x4>
    1fb6:	cf c2       	rjmp	.+1438   	; 0x2556 <irsnd_send_data+0x83e>
    1fb8:	60 e1       	ldi	r22, 0x10	; 16
    1fba:	89 81       	ldd	r24, Y+1	; 0x01
    1fbc:	9a 81       	ldd	r25, Y+2	; 0x02
    1fbe:	0e 94 49 0e 	call	0x1c92	; 0x1c92 <bitsrevervse>
    1fc2:	18 2f       	mov	r17, r24
    1fc4:	09 2f       	mov	r16, r25
    1fc6:	60 e1       	ldi	r22, 0x10	; 16
    1fc8:	8b 81       	ldd	r24, Y+3	; 0x03
    1fca:	9c 81       	ldd	r25, Y+4	; 0x04
    1fcc:	0e 94 49 0e 	call	0x1c92	; 0x1c92 <bitsrevervse>
    1fd0:	00 93 d3 00 	sts	0x00D3, r16	; 0x8000d3 <irsnd_buffer>
    1fd4:	10 93 d4 00 	sts	0x00D4, r17	; 0x8000d4 <irsnd_buffer+0x1>
    1fd8:	90 93 d5 00 	sts	0x00D5, r25	; 0x8000d5 <irsnd_buffer+0x2>
    1fdc:	90 95       	com	r25
    1fde:	90 93 d6 00 	sts	0x00D6, r25	; 0x8000d6 <irsnd_buffer+0x3>
    1fe2:	80 93 d7 00 	sts	0x00D7, r24	; 0x8000d7 <irsnd_buffer+0x4>
    1fe6:	80 95       	com	r24
    1fe8:	6c c0       	rjmp	.+216    	; 0x20c2 <irsnd_send_data+0x3aa>
    1fea:	6c e0       	ldi	r22, 0x0C	; 12
    1fec:	89 81       	ldd	r24, Y+1	; 0x01
    1fee:	9a 81       	ldd	r25, Y+2	; 0x02
    1ff0:	0e 94 49 0e 	call	0x1c92	; 0x1c92 <bitsrevervse>
    1ff4:	8c 01       	movw	r16, r24
    1ff6:	6c e0       	ldi	r22, 0x0C	; 12
    1ff8:	8b 81       	ldd	r24, Y+3	; 0x03
    1ffa:	9c 81       	ldd	r25, Y+4	; 0x04
    1ffc:	0e 94 49 0e 	call	0x1c92	; 0x1c92 <bitsrevervse>
    2000:	9c 01       	movw	r18, r24
    2002:	20 7f       	andi	r18, 0xF0	; 240
    2004:	3f 70       	andi	r19, 0x0F	; 15
    2006:	64 e0       	ldi	r22, 0x04	; 4
    2008:	36 95       	lsr	r19
    200a:	27 95       	ror	r18
    200c:	6a 95       	dec	r22
    200e:	e1 f7       	brne	.-8      	; 0x2008 <irsnd_send_data+0x2f0>
    2010:	20 93 d3 00 	sts	0x00D3, r18	; 0x8000d3 <irsnd_buffer>
    2014:	98 01       	movw	r18, r16
    2016:	22 27       	eor	r18, r18
    2018:	3f 70       	andi	r19, 0x0F	; 15
    201a:	82 95       	swap	r24
    201c:	80 7f       	andi	r24, 0xF0	; 240
    201e:	83 2b       	or	r24, r19
    2020:	80 93 d4 00 	sts	0x00D4, r24	; 0x8000d4 <irsnd_buffer+0x1>
    2024:	00 93 d5 00 	sts	0x00D5, r16	; 0x8000d5 <irsnd_buffer+0x2>
    2028:	96 c2       	rjmp	.+1324   	; 0x2556 <irsnd_send_data+0x83e>
    202a:	60 e1       	ldi	r22, 0x10	; 16
    202c:	89 81       	ldd	r24, Y+1	; 0x01
    202e:	9a 81       	ldd	r25, Y+2	; 0x02
    2030:	0e 94 49 0e 	call	0x1c92	; 0x1c92 <bitsrevervse>
    2034:	8c 01       	movw	r16, r24
    2036:	60 e1       	ldi	r22, 0x10	; 16
    2038:	8b 81       	ldd	r24, Y+3	; 0x03
    203a:	9c 81       	ldd	r25, Y+4	; 0x04
    203c:	0e 94 49 0e 	call	0x1c92	; 0x1c92 <bitsrevervse>
    2040:	ec 01       	movw	r28, r24
    2042:	8f 2d       	mov	r24, r15
    2044:	90 e0       	ldi	r25, 0x00	; 0
    2046:	64 e0       	ldi	r22, 0x04	; 4
    2048:	24 e0       	ldi	r18, 0x04	; 4
    204a:	96 95       	lsr	r25
    204c:	87 95       	ror	r24
    204e:	2a 95       	dec	r18
    2050:	e1 f7       	brne	.-8      	; 0x204a <irsnd_send_data+0x332>
    2052:	0e 94 49 0e 	call	0x1c92	; 0x1c92 <bitsrevervse>
    2056:	10 93 d3 00 	sts	0x00D3, r17	; 0x8000d3 <irsnd_buffer>
    205a:	00 93 d4 00 	sts	0x00D4, r16	; 0x8000d4 <irsnd_buffer+0x1>
    205e:	20 2f       	mov	r18, r16
    2060:	2f 70       	andi	r18, 0x0F	; 15
    2062:	91 2f       	mov	r25, r17
    2064:	92 95       	swap	r25
    2066:	9f 70       	andi	r25, 0x0F	; 15
    2068:	92 27       	eor	r25, r18
    206a:	98 01       	movw	r18, r16
    206c:	20 7f       	andi	r18, 0xF0	; 240
    206e:	33 27       	eor	r19, r19
    2070:	44 e0       	ldi	r20, 0x04	; 4
    2072:	36 95       	lsr	r19
    2074:	27 95       	ror	r18
    2076:	4a 95       	dec	r20
    2078:	e1 f7       	brne	.-8      	; 0x2072 <irsnd_send_data+0x35a>
    207a:	29 27       	eor	r18, r25
    207c:	00 27       	eor	r16, r16
    207e:	1f 70       	andi	r17, 0x0F	; 15
    2080:	21 27       	eor	r18, r17
    2082:	22 95       	swap	r18
    2084:	20 7f       	andi	r18, 0xF0	; 240
    2086:	9c 2f       	mov	r25, r28
    2088:	9f 70       	andi	r25, 0x0F	; 15
    208a:	29 2b       	or	r18, r25
    208c:	20 93 d5 00 	sts	0x00D5, r18	; 0x8000d5 <irsnd_buffer+0x2>
    2090:	82 95       	swap	r24
    2092:	80 7f       	andi	r24, 0xF0	; 240
    2094:	9d 2f       	mov	r25, r29
    2096:	92 95       	swap	r25
    2098:	9f 70       	andi	r25, 0x0F	; 15
    209a:	89 2b       	or	r24, r25
    209c:	80 93 d6 00 	sts	0x00D6, r24	; 0x8000d6 <irsnd_buffer+0x3>
    20a0:	c0 7f       	andi	r28, 0xF0	; 240
    20a2:	df 70       	andi	r29, 0x0F	; 15
    20a4:	54 e0       	ldi	r21, 0x04	; 4
    20a6:	d6 95       	lsr	r29
    20a8:	c7 95       	ror	r28
    20aa:	5a 95       	dec	r21
    20ac:	e1 f7       	brne	.-8      	; 0x20a6 <irsnd_send_data+0x38e>
    20ae:	c0 93 d7 00 	sts	0x00D7, r28	; 0x8000d7 <irsnd_buffer+0x4>
    20b2:	20 91 d5 00 	lds	r18, 0x00D5	; 0x8000d5 <irsnd_buffer+0x2>
    20b6:	80 91 d6 00 	lds	r24, 0x00D6	; 0x8000d6 <irsnd_buffer+0x3>
    20ba:	90 91 d7 00 	lds	r25, 0x00D7	; 0x8000d7 <irsnd_buffer+0x4>
    20be:	82 27       	eor	r24, r18
    20c0:	89 27       	eor	r24, r25
    20c2:	80 93 d8 00 	sts	0x00D8, r24	; 0x8000d8 <irsnd_buffer+0x5>
    20c6:	47 c2       	rjmp	.+1166   	; 0x2556 <irsnd_send_data+0x83e>
    20c8:	89 81       	ldd	r24, Y+1	; 0x01
    20ca:	9a 81       	ldd	r25, Y+2	; 0x02
    20cc:	4b 81       	ldd	r20, Y+3	; 0x03
    20ce:	2a e4       	ldi	r18, 0x4A	; 74
    20d0:	20 93 d3 00 	sts	0x00D3, r18	; 0x8000d3 <irsnd_buffer>
    20d4:	25 e7       	ldi	r18, 0x75	; 117
    20d6:	20 93 d4 00 	sts	0x00D4, r18	; 0x8000d4 <irsnd_buffer+0x1>
    20da:	23 ec       	ldi	r18, 0xC3	; 195
    20dc:	20 93 d5 00 	sts	0x00D5, r18	; 0x8000d5 <irsnd_buffer+0x2>
    20e0:	24 e6       	ldi	r18, 0x64	; 100
    20e2:	20 93 d6 00 	sts	0x00D6, r18	; 0x8000d6 <irsnd_buffer+0x3>
    20e6:	2b e9       	ldi	r18, 0x9B	; 155
    20e8:	20 93 d7 00 	sts	0x00D7, r18	; 0x8000d7 <irsnd_buffer+0x4>
    20ec:	9c 01       	movw	r18, r24
    20ee:	22 27       	eor	r18, r18
    20f0:	20 95       	com	r18
    20f2:	30 95       	com	r19
    20f4:	30 93 d8 00 	sts	0x00D8, r19	; 0x8000d8 <irsnd_buffer+0x5>
    20f8:	90 93 d9 00 	sts	0x00D9, r25	; 0x8000d9 <irsnd_buffer+0x6>
    20fc:	98 2f       	mov	r25, r24
    20fe:	90 95       	com	r25
    2100:	90 93 da 00 	sts	0x00DA, r25	; 0x8000da <irsnd_buffer+0x7>
    2104:	80 93 db 00 	sts	0x00DB, r24	; 0x8000db <irsnd_buffer+0x8>
    2108:	84 2f       	mov	r24, r20
    210a:	80 95       	com	r24
    210c:	80 93 dc 00 	sts	0x00DC, r24	; 0x8000dc <irsnd_buffer+0x9>
    2110:	40 93 dd 00 	sts	0x00DD, r20	; 0x8000dd <irsnd_buffer+0xa>
    2114:	20 c2       	rjmp	.+1088   	; 0x2556 <irsnd_send_data+0x83e>
    2116:	80 91 ce 00 	lds	r24, 0x00CE	; 0x8000ce <toggle_bit_recs80.2281>
    211a:	81 11       	cpse	r24, r1
    211c:	02 c0       	rjmp	.+4      	; 0x2122 <irsnd_send_data+0x40a>
    211e:	80 e8       	ldi	r24, 0x80	; 128
    2120:	01 c0       	rjmp	.+2      	; 0x2124 <irsnd_send_data+0x40c>
    2122:	80 e0       	ldi	r24, 0x00	; 0
    2124:	80 93 ce 00 	sts	0x00CE, r24	; 0x8000ce <toggle_bit_recs80.2281>
    2128:	4b 81       	ldd	r20, Y+3	; 0x03
    212a:	5c 81       	ldd	r21, Y+4	; 0x04
    212c:	29 81       	ldd	r18, Y+1	; 0x01
    212e:	92 2f       	mov	r25, r18
    2130:	92 95       	swap	r25
    2132:	90 7f       	andi	r25, 0xF0	; 240
    2134:	9a 01       	movw	r18, r20
    2136:	2c 73       	andi	r18, 0x3C	; 60
    2138:	33 27       	eor	r19, r19
    213a:	36 95       	lsr	r19
    213c:	27 95       	ror	r18
    213e:	36 95       	lsr	r19
    2140:	27 95       	ror	r18
    2142:	29 2b       	or	r18, r25
    2144:	82 2b       	or	r24, r18
    2146:	80 93 d3 00 	sts	0x00D3, r24	; 0x8000d3 <irsnd_buffer>
    214a:	42 95       	swap	r20
    214c:	44 0f       	add	r20, r20
    214e:	44 0f       	add	r20, r20
    2150:	40 7c       	andi	r20, 0xC0	; 192
    2152:	e4 c0       	rjmp	.+456    	; 0x231c <irsnd_send_data+0x604>
    2154:	80 91 cd 00 	lds	r24, 0x00CD	; 0x8000cd <toggle_bit_recs80ext.2282>
    2158:	81 11       	cpse	r24, r1
    215a:	02 c0       	rjmp	.+4      	; 0x2160 <irsnd_send_data+0x448>
    215c:	20 e4       	ldi	r18, 0x40	; 64
    215e:	01 c0       	rjmp	.+2      	; 0x2162 <irsnd_send_data+0x44a>
    2160:	20 e0       	ldi	r18, 0x00	; 0
    2162:	20 93 cd 00 	sts	0x00CD, r18	; 0x8000cd <toggle_bit_recs80ext.2282>
    2166:	4b 81       	ldd	r20, Y+3	; 0x03
    2168:	5c 81       	ldd	r21, Y+4	; 0x04
    216a:	89 81       	ldd	r24, Y+1	; 0x01
    216c:	8f 70       	andi	r24, 0x0F	; 15
    216e:	38 2f       	mov	r19, r24
    2170:	33 0f       	add	r19, r19
    2172:	33 0f       	add	r19, r19
    2174:	ca 01       	movw	r24, r20
    2176:	80 73       	andi	r24, 0x30	; 48
    2178:	99 27       	eor	r25, r25
    217a:	c4 e0       	ldi	r28, 0x04	; 4
    217c:	96 95       	lsr	r25
    217e:	87 95       	ror	r24
    2180:	ca 95       	dec	r28
    2182:	e1 f7       	brne	.-8      	; 0x217c <irsnd_send_data+0x464>
    2184:	83 2b       	or	r24, r19
    2186:	80 68       	ori	r24, 0x80	; 128
    2188:	c4 c0       	rjmp	.+392    	; 0x2312 <irsnd_send_data+0x5fa>
    218a:	80 91 cc 00 	lds	r24, 0x00CC	; 0x8000cc <toggle_bit_rc5.2283>
    218e:	81 11       	cpse	r24, r1
    2190:	02 c0       	rjmp	.+4      	; 0x2196 <irsnd_send_data+0x47e>
    2192:	40 e4       	ldi	r20, 0x40	; 64
    2194:	01 c0       	rjmp	.+2      	; 0x2198 <irsnd_send_data+0x480>
    2196:	40 e0       	ldi	r20, 0x00	; 0
    2198:	40 93 cc 00 	sts	0x00CC, r20	; 0x8000cc <toggle_bit_rc5.2283>
    219c:	9b 81       	ldd	r25, Y+3	; 0x03
    219e:	96 fd       	sbrc	r25, 6
    21a0:	02 c0       	rjmp	.+4      	; 0x21a6 <irsnd_send_data+0x48e>
    21a2:	80 e8       	ldi	r24, 0x80	; 128
    21a4:	01 c0       	rjmp	.+2      	; 0x21a8 <irsnd_send_data+0x490>
    21a6:	80 e0       	ldi	r24, 0x00	; 0
    21a8:	29 81       	ldd	r18, Y+1	; 0x01
    21aa:	2f 71       	andi	r18, 0x1F	; 31
    21ac:	22 0f       	add	r18, r18
    21ae:	95 fb       	bst	r25, 5
    21b0:	33 27       	eor	r19, r19
    21b2:	30 f9       	bld	r19, 0
    21b4:	23 2b       	or	r18, r19
    21b6:	84 2b       	or	r24, r20
    21b8:	82 2b       	or	r24, r18
    21ba:	80 93 d3 00 	sts	0x00D3, r24	; 0x8000d3 <irsnd_buffer>
    21be:	99 0f       	add	r25, r25
    21c0:	99 0f       	add	r25, r25
    21c2:	99 0f       	add	r25, r25
    21c4:	b6 c0       	rjmp	.+364    	; 0x2332 <irsnd_send_data+0x61a>
    21c6:	80 91 cb 00 	lds	r24, 0x00CB	; 0x8000cb <toggle_bit_rc6.2284>
    21ca:	81 11       	cpse	r24, r1
    21cc:	02 c0       	rjmp	.+4      	; 0x21d2 <irsnd_send_data+0x4ba>
    21ce:	98 e0       	ldi	r25, 0x08	; 8
    21d0:	01 c0       	rjmp	.+2      	; 0x21d4 <irsnd_send_data+0x4bc>
    21d2:	90 e0       	ldi	r25, 0x00	; 0
    21d4:	90 93 cb 00 	sts	0x00CB, r25	; 0x8000cb <toggle_bit_rc6.2284>
    21d8:	49 81       	ldd	r20, Y+1	; 0x01
    21da:	5a 81       	ldd	r21, Y+2	; 0x02
    21dc:	9a 01       	movw	r18, r20
    21de:	20 7e       	andi	r18, 0xE0	; 224
    21e0:	33 27       	eor	r19, r19
    21e2:	a5 e0       	ldi	r26, 0x05	; 5
    21e4:	36 95       	lsr	r19
    21e6:	27 95       	ror	r18
    21e8:	aa 95       	dec	r26
    21ea:	e1 f7       	brne	.-8      	; 0x21e4 <irsnd_send_data+0x4cc>
    21ec:	20 68       	ori	r18, 0x80	; 128
    21ee:	92 2b       	or	r25, r18
    21f0:	90 93 d3 00 	sts	0x00D3, r25	; 0x8000d3 <irsnd_buffer>
    21f4:	2b 81       	ldd	r18, Y+3	; 0x03
    21f6:	3c 81       	ldd	r19, Y+4	; 0x04
    21f8:	c9 01       	movw	r24, r18
    21fa:	80 7e       	andi	r24, 0xE0	; 224
    21fc:	99 27       	eor	r25, r25
    21fe:	b5 e0       	ldi	r27, 0x05	; 5
    2200:	96 95       	lsr	r25
    2202:	87 95       	ror	r24
    2204:	ba 95       	dec	r27
    2206:	e1 f7       	brne	.-8      	; 0x2200 <irsnd_send_data+0x4e8>
    2208:	44 0f       	add	r20, r20
    220a:	44 0f       	add	r20, r20
    220c:	44 0f       	add	r20, r20
    220e:	84 2b       	or	r24, r20
    2210:	80 93 d4 00 	sts	0x00D4, r24	; 0x8000d4 <irsnd_buffer+0x1>
    2214:	22 0f       	add	r18, r18
    2216:	22 0f       	add	r18, r18
    2218:	22 0f       	add	r18, r18
    221a:	20 93 d5 00 	sts	0x00D5, r18	; 0x8000d5 <irsnd_buffer+0x2>
    221e:	9b c1       	rjmp	.+822    	; 0x2556 <irsnd_send_data+0x83e>
    2220:	80 91 cb 00 	lds	r24, 0x00CB	; 0x8000cb <toggle_bit_rc6.2284>
    2224:	81 11       	cpse	r24, r1
    2226:	02 c0       	rjmp	.+4      	; 0x222c <irsnd_send_data+0x514>
    2228:	28 e0       	ldi	r18, 0x08	; 8
    222a:	01 c0       	rjmp	.+2      	; 0x222e <irsnd_send_data+0x516>
    222c:	20 e0       	ldi	r18, 0x00	; 0
    222e:	20 93 cb 00 	sts	0x00CB, r18	; 0x8000cb <toggle_bit_rc6.2284>
    2232:	89 81       	ldd	r24, Y+1	; 0x01
    2234:	9a 81       	ldd	r25, Y+2	; 0x02
    2236:	ac 01       	movw	r20, r24
    2238:	44 27       	eor	r20, r20
    223a:	50 73       	andi	r21, 0x30	; 48
    223c:	35 2f       	mov	r19, r21
    223e:	32 95       	swap	r19
    2240:	3f 70       	andi	r19, 0x0F	; 15
    2242:	30 6e       	ori	r19, 0xE0	; 224
    2244:	30 93 d3 00 	sts	0x00D3, r19	; 0x8000d3 <irsnd_buffer>
    2248:	9f 70       	andi	r25, 0x0F	; 15
    224a:	e4 e0       	ldi	r30, 0x04	; 4
    224c:	96 95       	lsr	r25
    224e:	87 95       	ror	r24
    2250:	ea 95       	dec	r30
    2252:	e1 f7       	brne	.-8      	; 0x224c <irsnd_send_data+0x534>
    2254:	80 93 d4 00 	sts	0x00D4, r24	; 0x8000d4 <irsnd_buffer+0x1>
    2258:	8b 81       	ldd	r24, Y+3	; 0x03
    225a:	9c 81       	ldd	r25, Y+4	; 0x04
    225c:	39 81       	ldd	r19, Y+1	; 0x01
    225e:	32 95       	swap	r19
    2260:	30 7f       	andi	r19, 0xF0	; 240
    2262:	49 2f       	mov	r20, r25
    2264:	42 95       	swap	r20
    2266:	4f 70       	andi	r20, 0x0F	; 15
    2268:	34 2b       	or	r19, r20
    226a:	23 2b       	or	r18, r19
    226c:	20 93 d5 00 	sts	0x00D5, r18	; 0x8000d5 <irsnd_buffer+0x2>
    2270:	80 7f       	andi	r24, 0xF0	; 240
    2272:	9f 70       	andi	r25, 0x0F	; 15
    2274:	f4 e0       	ldi	r31, 0x04	; 4
    2276:	96 95       	lsr	r25
    2278:	87 95       	ror	r24
    227a:	fa 95       	dec	r31
    227c:	e1 f7       	brne	.-8      	; 0x2276 <irsnd_send_data+0x55e>
    227e:	80 93 d6 00 	sts	0x00D6, r24	; 0x8000d6 <irsnd_buffer+0x3>
    2282:	8b 81       	ldd	r24, Y+3	; 0x03
    2284:	82 95       	swap	r24
    2286:	80 7f       	andi	r24, 0xF0	; 240
    2288:	80 93 d7 00 	sts	0x00D7, r24	; 0x8000d7 <irsnd_buffer+0x4>
    228c:	64 c1       	rjmp	.+712    	; 0x2556 <irsnd_send_data+0x83e>
    228e:	8b 81       	ldd	r24, Y+3	; 0x03
    2290:	9c 81       	ldd	r25, Y+4	; 0x04
    2292:	29 81       	ldd	r18, Y+1	; 0x01
    2294:	42 2f       	mov	r20, r18
    2296:	44 0f       	add	r20, r20
    2298:	44 0f       	add	r20, r20
    229a:	44 0f       	add	r20, r20
    229c:	9c 01       	movw	r18, r24
    229e:	20 78       	andi	r18, 0x80	; 128
    22a0:	33 70       	andi	r19, 0x03	; 3
    22a2:	22 0f       	add	r18, r18
    22a4:	23 2f       	mov	r18, r19
    22a6:	22 1f       	adc	r18, r18
    22a8:	33 0b       	sbc	r19, r19
    22aa:	31 95       	neg	r19
    22ac:	24 2b       	or	r18, r20
    22ae:	20 93 d3 00 	sts	0x00D3, r18	; 0x8000d3 <irsnd_buffer>
    22b2:	28 2f       	mov	r18, r24
    22b4:	22 0f       	add	r18, r18
    22b6:	20 93 d4 00 	sts	0x00D4, r18	; 0x8000d4 <irsnd_buffer+0x1>
    22ba:	9c 01       	movw	r18, r24
    22bc:	20 95       	com	r18
    22be:	30 95       	com	r19
    22c0:	20 78       	andi	r18, 0x80	; 128
    22c2:	33 70       	andi	r19, 0x03	; 3
    22c4:	22 0f       	add	r18, r18
    22c6:	23 2f       	mov	r18, r19
    22c8:	22 1f       	adc	r18, r18
    22ca:	33 0b       	sbc	r19, r19
    22cc:	31 95       	neg	r19
    22ce:	99 81       	ldd	r25, Y+1	; 0x01
    22d0:	99 0f       	add	r25, r25
    22d2:	99 0f       	add	r25, r25
    22d4:	99 0f       	add	r25, r25
    22d6:	29 2b       	or	r18, r25
    22d8:	20 93 d5 00 	sts	0x00D5, r18	; 0x8000d5 <irsnd_buffer+0x2>
    22dc:	80 95       	com	r24
    22de:	88 0f       	add	r24, r24
    22e0:	64 c0       	rjmp	.+200    	; 0x23aa <irsnd_send_data+0x692>
    22e2:	80 91 ca 00 	lds	r24, 0x00CA	; 0x8000ca <toggle_bit_thomson.2285>
    22e6:	81 11       	cpse	r24, r1
    22e8:	02 c0       	rjmp	.+4      	; 0x22ee <irsnd_send_data+0x5d6>
    22ea:	88 e0       	ldi	r24, 0x08	; 8
    22ec:	01 c0       	rjmp	.+2      	; 0x22f0 <irsnd_send_data+0x5d8>
    22ee:	80 e0       	ldi	r24, 0x00	; 0
    22f0:	80 93 ca 00 	sts	0x00CA, r24	; 0x8000ca <toggle_bit_thomson.2285>
    22f4:	4b 81       	ldd	r20, Y+3	; 0x03
    22f6:	5c 81       	ldd	r21, Y+4	; 0x04
    22f8:	29 81       	ldd	r18, Y+1	; 0x01
    22fa:	92 2f       	mov	r25, r18
    22fc:	92 95       	swap	r25
    22fe:	90 7f       	andi	r25, 0xF0	; 240
    2300:	9a 01       	movw	r18, r20
    2302:	20 77       	andi	r18, 0x70	; 112
    2304:	33 27       	eor	r19, r19
    2306:	54 e0       	ldi	r21, 0x04	; 4
    2308:	36 95       	lsr	r19
    230a:	27 95       	ror	r18
    230c:	5a 95       	dec	r21
    230e:	e1 f7       	brne	.-8      	; 0x2308 <irsnd_send_data+0x5f0>
    2310:	29 2b       	or	r18, r25
    2312:	82 2b       	or	r24, r18
    2314:	80 93 d3 00 	sts	0x00D3, r24	; 0x8000d3 <irsnd_buffer>
    2318:	42 95       	swap	r20
    231a:	40 7f       	andi	r20, 0xF0	; 240
    231c:	40 93 d4 00 	sts	0x00D4, r20	; 0x8000d4 <irsnd_buffer+0x1>
    2320:	1a c1       	rjmp	.+564    	; 0x2556 <irsnd_send_data+0x83e>
    2322:	60 e1       	ldi	r22, 0x10	; 16
    2324:	8b 81       	ldd	r24, Y+3	; 0x03
    2326:	9c 81       	ldd	r25, Y+4	; 0x04
    2328:	0e 94 49 0e 	call	0x1c92	; 0x1c92 <bitsrevervse>
    232c:	90 93 d3 00 	sts	0x00D3, r25	; 0x8000d3 <irsnd_buffer>
    2330:	90 95       	com	r25
    2332:	90 93 d4 00 	sts	0x00D4, r25	; 0x8000d4 <irsnd_buffer+0x1>
    2336:	0f c1       	rjmp	.+542    	; 0x2556 <irsnd_send_data+0x83e>
    2338:	8b 81       	ldd	r24, Y+3	; 0x03
    233a:	9c 81       	ldd	r25, Y+4	; 0x04
    233c:	9c 01       	movw	r18, r24
    233e:	36 95       	lsr	r19
    2340:	27 95       	ror	r18
    2342:	36 95       	lsr	r19
    2344:	27 95       	ror	r18
    2346:	20 93 d3 00 	sts	0x00D3, r18	; 0x8000d3 <irsnd_buffer>
    234a:	82 95       	swap	r24
    234c:	88 0f       	add	r24, r24
    234e:	88 0f       	add	r24, r24
    2350:	80 7c       	andi	r24, 0xC0	; 192
    2352:	da c0       	rjmp	.+436    	; 0x2508 <irsnd_send_data+0x7f0>
    2354:	8b 81       	ldd	r24, Y+3	; 0x03
    2356:	9c 81       	ldd	r25, Y+4	; 0x04
    2358:	29 2f       	mov	r18, r25
    235a:	26 95       	lsr	r18
    235c:	26 95       	lsr	r18
    235e:	26 95       	lsr	r18
    2360:	20 93 d3 00 	sts	0x00D3, r18	; 0x8000d3 <irsnd_buffer>
    2364:	9c 01       	movw	r18, r24
    2366:	93 e0       	ldi	r25, 0x03	; 3
    2368:	36 95       	lsr	r19
    236a:	27 95       	ror	r18
    236c:	9a 95       	dec	r25
    236e:	e1 f7       	brne	.-8      	; 0x2368 <irsnd_send_data+0x650>
    2370:	20 93 d4 00 	sts	0x00D4, r18	; 0x8000d4 <irsnd_buffer+0x1>
    2374:	82 95       	swap	r24
    2376:	88 0f       	add	r24, r24
    2378:	80 7e       	andi	r24, 0xE0	; 224
    237a:	e5 c0       	rjmp	.+458    	; 0x2546 <irsnd_send_data+0x82e>
    237c:	69 e0       	ldi	r22, 0x09	; 9
    237e:	8b 81       	ldd	r24, Y+3	; 0x03
    2380:	9c 81       	ldd	r25, Y+4	; 0x04
    2382:	0e 94 49 0e 	call	0x1c92	; 0x1c92 <bitsrevervse>
    2386:	2f ef       	ldi	r18, 0xFF	; 255
    2388:	20 93 d3 00 	sts	0x00D3, r18	; 0x8000d3 <irsnd_buffer>
    238c:	20 ec       	ldi	r18, 0xC0	; 192
    238e:	20 93 d4 00 	sts	0x00D4, r18	; 0x8000d4 <irsnd_buffer+0x1>
    2392:	9c 01       	movw	r18, r24
    2394:	36 95       	lsr	r19
    2396:	27 95       	ror	r18
    2398:	36 95       	lsr	r19
    239a:	27 95       	ror	r18
    239c:	20 68       	ori	r18, 0x80	; 128
    239e:	20 93 d5 00 	sts	0x00D5, r18	; 0x8000d5 <irsnd_buffer+0x2>
    23a2:	82 95       	swap	r24
    23a4:	88 0f       	add	r24, r24
    23a6:	88 0f       	add	r24, r24
    23a8:	80 7c       	andi	r24, 0xC0	; 192
    23aa:	80 93 d6 00 	sts	0x00D6, r24	; 0x8000d6 <irsnd_buffer+0x3>
    23ae:	d3 c0       	rjmp	.+422    	; 0x2556 <irsnd_send_data+0x83e>
    23b0:	8b 81       	ldd	r24, Y+3	; 0x03
    23b2:	9c 81       	ldd	r25, Y+4	; 0x04
    23b4:	9c 01       	movw	r18, r24
    23b6:	22 0f       	add	r18, r18
    23b8:	23 2f       	mov	r18, r19
    23ba:	22 1f       	adc	r18, r18
    23bc:	33 0b       	sbc	r19, r19
    23be:	31 95       	neg	r19
    23c0:	20 93 d3 00 	sts	0x00D3, r18	; 0x8000d3 <irsnd_buffer>
    23c4:	88 0f       	add	r24, r24
    23c6:	a0 c0       	rjmp	.+320    	; 0x2508 <irsnd_send_data+0x7f0>
    23c8:	67 e0       	ldi	r22, 0x07	; 7
    23ca:	8d e7       	ldi	r24, 0x7D	; 125
    23cc:	90 e0       	ldi	r25, 0x00	; 0
    23ce:	0e 94 49 0e 	call	0x1c92	; 0x1c92 <bitsrevervse>
    23d2:	8c 01       	movw	r16, r24
    23d4:	67 e0       	ldi	r22, 0x07	; 7
    23d6:	8b 81       	ldd	r24, Y+3	; 0x03
    23d8:	9c 81       	ldd	r25, Y+4	; 0x04
    23da:	0e 94 49 0e 	call	0x1c92	; 0x1c92 <bitsrevervse>
    23de:	16 95       	lsr	r17
    23e0:	10 2f       	mov	r17, r16
    23e2:	00 27       	eor	r16, r16
    23e4:	17 95       	ror	r17
    23e6:	07 95       	ror	r16
    23e8:	80 2b       	or	r24, r16
    23ea:	91 2b       	or	r25, r17
    23ec:	28 2f       	mov	r18, r24
    23ee:	22 0f       	add	r18, r18
    23f0:	21 60       	ori	r18, 0x01	; 1
    23f2:	20 93 d3 00 	sts	0x00D3, r18	; 0x8000d3 <irsnd_buffer>
    23f6:	d6 e0       	ldi	r29, 0x06	; 6
    23f8:	96 95       	lsr	r25
    23fa:	87 95       	ror	r24
    23fc:	da 95       	dec	r29
    23fe:	e1 f7       	brne	.-8      	; 0x23f8 <irsnd_send_data+0x6e0>
    2400:	83 c0       	rjmp	.+262    	; 0x2508 <irsnd_send_data+0x7f0>
    2402:	68 e0       	ldi	r22, 0x08	; 8
    2404:	89 81       	ldd	r24, Y+1	; 0x01
    2406:	9a 81       	ldd	r25, Y+2	; 0x02
    2408:	0e 94 49 0e 	call	0x1c92	; 0x1c92 <bitsrevervse>
    240c:	8c 01       	movw	r16, r24
    240e:	68 e0       	ldi	r22, 0x08	; 8
    2410:	8b 81       	ldd	r24, Y+3	; 0x03
    2412:	9c 81       	ldd	r25, Y+4	; 0x04
    2414:	0e 94 49 0e 	call	0x1c92	; 0x1c92 <bitsrevervse>
    2418:	2f eb       	ldi	r18, 0xBF	; 191
    241a:	20 93 d3 00 	sts	0x00D3, r18	; 0x8000d3 <irsnd_buffer>
    241e:	2f ef       	ldi	r18, 0xFF	; 255
    2420:	20 93 d4 00 	sts	0x00D4, r18	; 0x8000d4 <irsnd_buffer+0x1>
    2424:	20 e8       	ldi	r18, 0x80	; 128
    2426:	20 93 d5 00 	sts	0x00D5, r18	; 0x8000d5 <irsnd_buffer+0x2>
    242a:	9c 01       	movw	r18, r24
    242c:	36 95       	lsr	r19
    242e:	27 95       	ror	r18
    2430:	20 68       	ori	r18, 0x80	; 128
    2432:	20 93 d6 00 	sts	0x00D6, r18	; 0x8000d6 <irsnd_buffer+0x3>
    2436:	87 95       	ror	r24
    2438:	88 27       	eor	r24, r24
    243a:	87 95       	ror	r24
    243c:	98 01       	movw	r18, r16
    243e:	36 95       	lsr	r19
    2440:	27 95       	ror	r18
    2442:	82 2b       	or	r24, r18
    2444:	80 93 d7 00 	sts	0x00D7, r24	; 0x8000d7 <irsnd_buffer+0x4>
    2448:	07 95       	ror	r16
    244a:	00 27       	eor	r16, r16
    244c:	07 95       	ror	r16
    244e:	00 93 d8 00 	sts	0x00D8, r16	; 0x8000d8 <irsnd_buffer+0x5>
    2452:	81 c0       	rjmp	.+258    	; 0x2556 <irsnd_send_data+0x83e>
    2454:	89 81       	ldd	r24, Y+1	; 0x01
    2456:	9a 81       	ldd	r25, Y+2	; 0x02
    2458:	9c 01       	movw	r18, r24
    245a:	37 70       	andi	r19, 0x07	; 7
    245c:	e3 e0       	ldi	r30, 0x03	; 3
    245e:	36 95       	lsr	r19
    2460:	27 95       	ror	r18
    2462:	ea 95       	dec	r30
    2464:	e1 f7       	brne	.-8      	; 0x245e <irsnd_send_data+0x746>
    2466:	20 93 d3 00 	sts	0x00D3, r18	; 0x8000d3 <irsnd_buffer>
    246a:	2b 81       	ldd	r18, Y+3	; 0x03
    246c:	3c 81       	ldd	r19, Y+4	; 0x04
    246e:	a9 01       	movw	r20, r18
    2470:	f5 e0       	ldi	r31, 0x05	; 5
    2472:	56 95       	lsr	r21
    2474:	47 95       	ror	r20
    2476:	fa 95       	dec	r31
    2478:	e1 f7       	brne	.-8      	; 0x2472 <irsnd_send_data+0x75a>
    247a:	4f 71       	andi	r20, 0x1F	; 31
    247c:	82 95       	swap	r24
    247e:	88 0f       	add	r24, r24
    2480:	80 7e       	andi	r24, 0xE0	; 224
    2482:	84 2b       	or	r24, r20
    2484:	80 93 d4 00 	sts	0x00D4, r24	; 0x8000d4 <irsnd_buffer+0x1>
    2488:	82 2f       	mov	r24, r18
    248a:	88 0f       	add	r24, r24
    248c:	88 0f       	add	r24, r24
    248e:	88 0f       	add	r24, r24
    2490:	20 ff       	sbrs	r18, 0
    2492:	02 c0       	rjmp	.+4      	; 0x2498 <irsnd_send_data+0x780>
    2494:	90 e0       	ldi	r25, 0x00	; 0
    2496:	01 c0       	rjmp	.+2      	; 0x249a <irsnd_send_data+0x782>
    2498:	94 e0       	ldi	r25, 0x04	; 4
    249a:	89 2b       	or	r24, r25
    249c:	54 c0       	rjmp	.+168    	; 0x2546 <irsnd_send_data+0x82e>
    249e:	29 81       	ldd	r18, Y+1	; 0x01
    24a0:	3a 81       	ldd	r19, Y+2	; 0x02
    24a2:	c9 01       	movw	r24, r18
    24a4:	91 70       	andi	r25, 0x01	; 1
    24a6:	96 95       	lsr	r25
    24a8:	87 95       	ror	r24
    24aa:	80 93 d3 00 	sts	0x00D3, r24	; 0x8000d3 <irsnd_buffer>
    24ae:	8b 81       	ldd	r24, Y+3	; 0x03
    24b0:	98 2f       	mov	r25, r24
    24b2:	20 fb       	bst	r18, 0
    24b4:	97 f9       	bld	r25, 7
    24b6:	90 93 d4 00 	sts	0x00D4, r25	; 0x8000d4 <irsnd_buffer+0x1>
    24ba:	80 ff       	sbrs	r24, 0
    24bc:	02 c0       	rjmp	.+4      	; 0x24c2 <irsnd_send_data+0x7aa>
    24be:	80 e0       	ldi	r24, 0x00	; 0
    24c0:	42 c0       	rjmp	.+132    	; 0x2546 <irsnd_send_data+0x82e>
    24c2:	80 e8       	ldi	r24, 0x80	; 128
    24c4:	40 c0       	rjmp	.+128    	; 0x2546 <irsnd_send_data+0x82e>
    24c6:	64 e0       	ldi	r22, 0x04	; 4
    24c8:	89 81       	ldd	r24, Y+1	; 0x01
    24ca:	9a 81       	ldd	r25, Y+2	; 0x02
    24cc:	0e 94 49 0e 	call	0x1c92	; 0x1c92 <bitsrevervse>
    24d0:	18 2f       	mov	r17, r24
    24d2:	6c e0       	ldi	r22, 0x0C	; 12
    24d4:	8b 81       	ldd	r24, Y+3	; 0x03
    24d6:	9c 81       	ldd	r25, Y+4	; 0x04
    24d8:	0e 94 49 0e 	call	0x1c92	; 0x1c92 <bitsrevervse>
    24dc:	9c 01       	movw	r18, r24
    24de:	22 27       	eor	r18, r18
    24e0:	3f 70       	andi	r19, 0x0F	; 15
    24e2:	12 95       	swap	r17
    24e4:	10 7f       	andi	r17, 0xF0	; 240
    24e6:	13 2b       	or	r17, r19
    24e8:	10 93 d3 00 	sts	0x00D3, r17	; 0x8000d3 <irsnd_buffer>
    24ec:	0d c0       	rjmp	.+26     	; 0x2508 <irsnd_send_data+0x7f0>
    24ee:	8b 81       	ldd	r24, Y+3	; 0x03
    24f0:	82 95       	swap	r24
    24f2:	88 0f       	add	r24, r24
    24f4:	88 0f       	add	r24, r24
    24f6:	80 7c       	andi	r24, 0xC0	; 192
    24f8:	2c c0       	rjmp	.+88     	; 0x2552 <irsnd_send_data+0x83a>
    24fa:	60 e1       	ldi	r22, 0x10	; 16
    24fc:	8b 81       	ldd	r24, Y+3	; 0x03
    24fe:	9c 81       	ldd	r25, Y+4	; 0x04
    2500:	0e 94 49 0e 	call	0x1c92	; 0x1c92 <bitsrevervse>
    2504:	90 93 d3 00 	sts	0x00D3, r25	; 0x8000d3 <irsnd_buffer>
    2508:	80 93 d4 00 	sts	0x00D4, r24	; 0x8000d4 <irsnd_buffer+0x1>
    250c:	24 c0       	rjmp	.+72     	; 0x2556 <irsnd_send_data+0x83e>
    250e:	29 81       	ldd	r18, Y+1	; 0x01
    2510:	3a 81       	ldd	r19, Y+2	; 0x02
    2512:	c9 01       	movw	r24, r18
    2514:	96 95       	lsr	r25
    2516:	87 95       	ror	r24
    2518:	96 95       	lsr	r25
    251a:	87 95       	ror	r24
    251c:	80 68       	ori	r24, 0x80	; 128
    251e:	80 93 d3 00 	sts	0x00D3, r24	; 0x8000d3 <irsnd_buffer>
    2522:	8b 81       	ldd	r24, Y+3	; 0x03
    2524:	9c 81       	ldd	r25, Y+4	; 0x04
    2526:	22 95       	swap	r18
    2528:	22 0f       	add	r18, r18
    252a:	22 0f       	add	r18, r18
    252c:	20 7c       	andi	r18, 0xC0	; 192
    252e:	ac 01       	movw	r20, r24
    2530:	56 95       	lsr	r21
    2532:	47 95       	ror	r20
    2534:	56 95       	lsr	r21
    2536:	47 95       	ror	r20
    2538:	24 2b       	or	r18, r20
    253a:	20 93 d4 00 	sts	0x00D4, r18	; 0x8000d4 <irsnd_buffer+0x1>
    253e:	82 95       	swap	r24
    2540:	88 0f       	add	r24, r24
    2542:	88 0f       	add	r24, r24
    2544:	80 7c       	andi	r24, 0xC0	; 192
    2546:	80 93 d5 00 	sts	0x00D5, r24	; 0x8000d5 <irsnd_buffer+0x2>
    254a:	05 c0       	rjmp	.+10     	; 0x2556 <irsnd_send_data+0x83e>
    254c:	8b 81       	ldd	r24, Y+3	; 0x03
    254e:	88 0f       	add	r24, r24
    2550:	88 0f       	add	r24, r24
    2552:	80 93 d3 00 	sts	0x00D3, r24	; 0x8000d3 <irsnd_buffer>
    2556:	81 e0       	ldi	r24, 0x01	; 1
    2558:	80 93 e0 00 	sts	0x00E0, r24	; 0x8000e0 <irsnd_busy>
    255c:	80 91 e0 00 	lds	r24, 0x00E0	; 0x8000e0 <irsnd_busy>
    2560:	01 c0       	rjmp	.+2      	; 0x2564 <irsnd_send_data+0x84c>
    2562:	80 e0       	ldi	r24, 0x00	; 0
    2564:	df 91       	pop	r29
    2566:	cf 91       	pop	r28
    2568:	1f 91       	pop	r17
    256a:	0f 91       	pop	r16
    256c:	ff 90       	pop	r15
    256e:	08 95       	ret

00002570 <irsnd_ISR>:
    2570:	80 91 e0 00 	lds	r24, 0x00E0	; 0x8000e0 <irsnd_busy>
    2574:	88 23       	and	r24, r24
    2576:	11 f4       	brne	.+4      	; 0x257c <irsnd_ISR+0xc>
    2578:	0c 94 f7 1a 	jmp	0x35ee	; 0x35ee <irsnd_ISR+0x107e>
    257c:	20 91 6a 00 	lds	r18, 0x006A	; 0x80006a <current_bit.2339>
    2580:	2f 3f       	cpi	r18, 0xFF	; 255
    2582:	09 f0       	breq	.+2      	; 0x2586 <irsnd_ISR+0x16>
    2584:	2a c5       	rjmp	.+2644   	; 0x2fda <irsnd_ISR+0xa6a>
    2586:	80 91 69 00 	lds	r24, 0x0069	; 0x800069 <new_frame.2349>
    258a:	88 23       	and	r24, r24
    258c:	09 f4       	brne	.+2      	; 0x2590 <irsnd_ISR+0x20>
    258e:	25 c5       	rjmp	.+2634   	; 0x2fda <irsnd_ISR+0xa6a>
    2590:	80 91 c9 00 	lds	r24, 0x00C9	; 0x8000c9 <auto_repetition_counter.2353>
    2594:	88 23       	and	r24, r24
    2596:	09 f4       	brne	.+2      	; 0x259a <irsnd_ISR+0x2a>
    2598:	4a c0       	rjmp	.+148    	; 0x262e <irsnd_ISR+0xbe>
    259a:	20 91 c7 00 	lds	r18, 0x00C7	; 0x8000c7 <auto_repetition_pause_counter.2355>
    259e:	30 91 c8 00 	lds	r19, 0x00C8	; 0x8000c8 <auto_repetition_pause_counter.2355+0x1>
    25a2:	2f 5f       	subi	r18, 0xFF	; 255
    25a4:	3f 4f       	sbci	r19, 0xFF	; 255
    25a6:	30 93 c8 00 	sts	0x00C8, r19	; 0x8000c8 <auto_repetition_pause_counter.2355+0x1>
    25aa:	20 93 c7 00 	sts	0x00C7, r18	; 0x8000c7 <auto_repetition_pause_counter.2355>
    25ae:	40 91 c5 00 	lds	r20, 0x00C5	; 0x8000c5 <auto_repetition_pause_len.2354>
    25b2:	50 91 c6 00 	lds	r21, 0x00C6	; 0x8000c6 <auto_repetition_pause_len.2354+0x1>
    25b6:	24 17       	cp	r18, r20
    25b8:	35 07       	cpc	r19, r21
    25ba:	10 f4       	brcc	.+4      	; 0x25c0 <irsnd_ISR+0x50>
    25bc:	0c 94 f7 1a 	jmp	0x35ee	; 0x35ee <irsnd_ISR+0x107e>
    25c0:	10 92 c8 00 	sts	0x00C8, r1	; 0x8000c8 <auto_repetition_pause_counter.2355+0x1>
    25c4:	10 92 c7 00 	sts	0x00C7, r1	; 0x8000c7 <auto_repetition_pause_counter.2355>
    25c8:	90 91 de 00 	lds	r25, 0x00DE	; 0x8000de <irsnd_protocol>
    25cc:	98 30       	cpi	r25, 0x08	; 8
    25ce:	29 f4       	brne	.+10     	; 0x25da <irsnd_ISR+0x6a>
    25d0:	80 e1       	ldi	r24, 0x10	; 16
    25d2:	80 93 6a 00 	sts	0x006A, r24	; 0x80006a <current_bit.2339>
    25d6:	8f e1       	ldi	r24, 0x1F	; 31
    25d8:	27 c0       	rjmp	.+78     	; 0x2628 <irsnd_ISR+0xb8>
    25da:	90 91 de 00 	lds	r25, 0x00DE	; 0x8000de <irsnd_protocol>
    25de:	9f 30       	cpi	r25, 0x0F	; 15
    25e0:	21 f4       	brne	.+8      	; 0x25ea <irsnd_ISR+0x7a>
    25e2:	90 93 6a 00 	sts	0x006A, r25	; 0x80006a <current_bit.2339>
    25e6:	8a e1       	ldi	r24, 0x1A	; 26
    25e8:	1f c0       	rjmp	.+62     	; 0x2628 <irsnd_ISR+0xb8>
    25ea:	90 91 de 00 	lds	r25, 0x00DE	; 0x8000de <irsnd_protocol>
    25ee:	98 31       	cpi	r25, 0x18	; 24
    25f0:	29 f4       	brne	.+10     	; 0x25fc <irsnd_ISR+0x8c>
    25f2:	87 e0       	ldi	r24, 0x07	; 7
    25f4:	80 93 6a 00 	sts	0x006A, r24	; 0x80006a <current_bit.2339>
    25f8:	8f e0       	ldi	r24, 0x0F	; 15
    25fa:	16 c0       	rjmp	.+44     	; 0x2628 <irsnd_ISR+0xb8>
    25fc:	90 91 de 00 	lds	r25, 0x00DE	; 0x8000de <irsnd_protocol>
    2600:	90 31       	cpi	r25, 0x10	; 16
    2602:	09 f0       	breq	.+2      	; 0x2606 <irsnd_ISR+0x96>
    2604:	ea c4       	rjmp	.+2516   	; 0x2fda <irsnd_ISR+0xa6a>
    2606:	90 e0       	ldi	r25, 0x00	; 0
    2608:	01 96       	adiw	r24, 0x01	; 1
    260a:	20 91 c3 00 	lds	r18, 0x00C3	; 0x8000c3 <n_auto_repetitions.2352>
    260e:	30 e0       	ldi	r19, 0x00	; 0
    2610:	82 17       	cp	r24, r18
    2612:	93 07       	cpc	r25, r19
    2614:	2c f4       	brge	.+10     	; 0x2620 <irsnd_ISR+0xb0>
    2616:	87 e1       	ldi	r24, 0x17	; 23
    2618:	80 93 6a 00 	sts	0x006A, r24	; 0x80006a <current_bit.2339>
    261c:	89 e2       	ldi	r24, 0x29	; 41
    261e:	04 c0       	rjmp	.+8      	; 0x2628 <irsnd_ISR+0xb8>
    2620:	8f ef       	ldi	r24, 0xFF	; 255
    2622:	80 93 6a 00 	sts	0x006A, r24	; 0x80006a <current_bit.2339>
    2626:	81 e1       	ldi	r24, 0x11	; 17
    2628:	80 93 c4 00 	sts	0x00C4, r24	; 0x8000c4 <complete_data_len.2350>
    262c:	d6 c4       	rjmp	.+2476   	; 0x2fda <irsnd_ISR+0xa6a>
    262e:	80 91 c1 00 	lds	r24, 0x00C1	; 0x8000c1 <packet_repeat_pause_counter.2358>
    2632:	90 91 c2 00 	lds	r25, 0x00C2	; 0x8000c2 <packet_repeat_pause_counter.2358+0x1>
    2636:	40 91 bf 00 	lds	r20, 0x00BF	; 0x8000bf <repeat_frame_pause_len.2357>
    263a:	50 91 c0 00 	lds	r21, 0x00C0	; 0x8000c0 <repeat_frame_pause_len.2357+0x1>
    263e:	84 17       	cp	r24, r20
    2640:	95 07       	cpc	r25, r21
    2642:	30 f4       	brcc	.+12     	; 0x2650 <irsnd_ISR+0xe0>
    2644:	01 96       	adiw	r24, 0x01	; 1
    2646:	90 93 c2 00 	sts	0x00C2, r25	; 0x8000c2 <packet_repeat_pause_counter.2358+0x1>
    264a:	80 93 c1 00 	sts	0x00C1, r24	; 0x8000c1 <packet_repeat_pause_counter.2358>
    264e:	cf c7       	rjmp	.+3998   	; 0x35ee <irsnd_ISR+0x107e>
    2650:	80 91 be 00 	lds	r24, 0x00BE	; 0x8000be <send_trailer.2338>
    2654:	88 23       	and	r24, r24
    2656:	29 f0       	breq	.+10     	; 0x2662 <irsnd_ISR+0xf2>
    2658:	10 92 e0 00 	sts	0x00E0, r1	; 0x8000e0 <irsnd_busy>
    265c:	10 92 be 00 	sts	0x00BE, r1	; 0x8000be <send_trailer.2338>
    2660:	c6 c7       	rjmp	.+3980   	; 0x35ee <irsnd_ISR+0x107e>
    2662:	80 91 d2 00 	lds	r24, 0x00D2	; 0x8000d2 <irsnd_repeat>
    2666:	8f 30       	cpi	r24, 0x0F	; 15
    2668:	19 f0       	breq	.+6      	; 0x2670 <irsnd_ISR+0x100>
    266a:	80 93 bd 00 	sts	0x00BD, r24	; 0x8000bd <n_repeat_frames.2351>
    266e:	02 c0       	rjmp	.+4      	; 0x2674 <irsnd_ISR+0x104>
    2670:	20 93 bd 00 	sts	0x00BD, r18	; 0x8000bd <n_repeat_frames.2351>
    2674:	10 92 c2 00 	sts	0x00C2, r1	; 0x8000c2 <packet_repeat_pause_counter.2358+0x1>
    2678:	10 92 c1 00 	sts	0x00C1, r1	; 0x8000c1 <packet_repeat_pause_counter.2358>
    267c:	10 92 bc 00 	sts	0x00BC, r1	; 0x8000bc <pulse_counter.2340>
    2680:	10 92 bb 00 	sts	0x00BB, r1	; 0x8000bb <pause_counter.2341+0x1>
    2684:	10 92 ba 00 	sts	0x00BA, r1	; 0x8000ba <pause_counter.2341>
    2688:	80 91 de 00 	lds	r24, 0x00DE	; 0x8000de <irsnd_protocol>
    268c:	85 31       	cpi	r24, 0x15	; 21
    268e:	09 f4       	brne	.+2      	; 0x2692 <irsnd_ISR+0x122>
    2690:	37 c3       	rjmp	.+1646   	; 0x2d00 <irsnd_ISR+0x790>
    2692:	08 f0       	brcs	.+2      	; 0x2696 <irsnd_ISR+0x126>
    2694:	70 c0       	rjmp	.+224    	; 0x2776 <irsnd_ISR+0x206>
    2696:	89 30       	cpi	r24, 0x09	; 9
    2698:	09 f4       	brne	.+2      	; 0x269c <irsnd_ISR+0x12c>
    269a:	1c c3       	rjmp	.+1592   	; 0x2cd4 <irsnd_ISR+0x764>
    269c:	a8 f5       	brcc	.+106    	; 0x2708 <irsnd_ISR+0x198>
    269e:	84 30       	cpi	r24, 0x04	; 4
    26a0:	09 f4       	brne	.+2      	; 0x26a4 <irsnd_ISR+0x134>
    26a2:	3a c2       	rjmp	.+1140   	; 0x2b18 <irsnd_ISR+0x5a8>
    26a4:	48 f4       	brcc	.+18     	; 0x26b8 <irsnd_ISR+0x148>
    26a6:	82 30       	cpi	r24, 0x02	; 2
    26a8:	09 f4       	brne	.+2      	; 0x26ac <irsnd_ISR+0x13c>
    26aa:	71 c1       	rjmp	.+738    	; 0x298e <irsnd_ISR+0x41e>
    26ac:	08 f0       	brcs	.+2      	; 0x26b0 <irsnd_ISR+0x140>
    26ae:	eb c1       	rjmp	.+982    	; 0x2a86 <irsnd_ISR+0x516>
    26b0:	81 30       	cpi	r24, 0x01	; 1
    26b2:	09 f4       	brne	.+2      	; 0x26b6 <irsnd_ISR+0x146>
    26b4:	43 c1       	rjmp	.+646    	; 0x293c <irsnd_ISR+0x3cc>
    26b6:	8f c4       	rjmp	.+2334   	; 0x2fd6 <irsnd_ISR+0xa66>
    26b8:	86 30       	cpi	r24, 0x06	; 6
    26ba:	09 f4       	brne	.+2      	; 0x26be <irsnd_ISR+0x14e>
    26bc:	97 c2       	rjmp	.+1326   	; 0x2bec <irsnd_ISR+0x67c>
    26be:	08 f4       	brcc	.+2      	; 0x26c2 <irsnd_ISR+0x152>
    26c0:	4e c2       	rjmp	.+1180   	; 0x2b5e <irsnd_ISR+0x5ee>
    26c2:	87 30       	cpi	r24, 0x07	; 7
    26c4:	09 f4       	brne	.+2      	; 0x26c8 <irsnd_ISR+0x158>
    26c6:	e9 c2       	rjmp	.+1490   	; 0x2c9a <irsnd_ISR+0x72a>
    26c8:	88 30       	cpi	r24, 0x08	; 8
    26ca:	09 f0       	breq	.+2      	; 0x26ce <irsnd_ISR+0x15e>
    26cc:	84 c4       	rjmp	.+2312   	; 0x2fd6 <irsnd_ISR+0xa66>
    26ce:	10 92 b9 00 	sts	0x00B9, r1	; 0x8000b9 <startbit_pulse_len.2342>
    26d2:	10 92 b8 00 	sts	0x00B8, r1	; 0x8000b8 <startbit_pause_len.2343+0x1>
    26d6:	10 92 b7 00 	sts	0x00B7, r1	; 0x8000b7 <startbit_pause_len.2343>
    26da:	85 e0       	ldi	r24, 0x05	; 5
    26dc:	80 93 b6 00 	sts	0x00B6, r24	; 0x8000b6 <pulse_1_len.2344>
    26e0:	9a e1       	ldi	r25, 0x1A	; 26
    26e2:	90 93 b5 00 	sts	0x00B5, r25	; 0x8000b5 <pause_1_len.2345>
    26e6:	80 93 b4 00 	sts	0x00B4, r24	; 0x8000b4 <pulse_0_len.2346>
    26ea:	8a e0       	ldi	r24, 0x0A	; 10
    26ec:	80 93 b3 00 	sts	0x00B3, r24	; 0x8000b3 <pause_0_len.2347>
    26f0:	81 e0       	ldi	r24, 0x01	; 1
    26f2:	80 93 b2 00 	sts	0x00B2, r24	; 0x8000b2 <has_stop_bit.2348>
    26f6:	8f e0       	ldi	r24, 0x0F	; 15
    26f8:	80 93 c4 00 	sts	0x00C4, r24	; 0x8000c4 <complete_data_len.2350>
    26fc:	82 e0       	ldi	r24, 0x02	; 2
    26fe:	80 93 c3 00 	sts	0x00C3, r24	; 0x8000c3 <n_auto_repetitions.2352>
    2702:	83 ea       	ldi	r24, 0xA3	; 163
    2704:	92 e0       	ldi	r25, 0x02	; 2
    2706:	46 c3       	rjmp	.+1676   	; 0x2d94 <irsnd_ISR+0x824>
    2708:	8e 30       	cpi	r24, 0x0E	; 14
    270a:	09 f4       	brne	.+2      	; 0x270e <irsnd_ISR+0x19e>
    270c:	71 c3       	rjmp	.+1762   	; 0x2df0 <irsnd_ISR+0x880>
    270e:	38 f5       	brcc	.+78     	; 0x275e <irsnd_ISR+0x1ee>
    2710:	8c 30       	cpi	r24, 0x0C	; 12
    2712:	09 f4       	brne	.+2      	; 0x2716 <irsnd_ISR+0x1a6>
    2714:	87 c2       	rjmp	.+1294   	; 0x2c24 <irsnd_ISR+0x6b4>
    2716:	08 f0       	brcs	.+2      	; 0x271a <irsnd_ISR+0x1aa>
    2718:	42 c3       	rjmp	.+1668   	; 0x2d9e <irsnd_ISR+0x82e>
    271a:	8a 30       	cpi	r24, 0x0A	; 10
    271c:	09 f0       	breq	.+2      	; 0x2720 <irsnd_ISR+0x1b0>
    271e:	5b c4       	rjmp	.+2230   	; 0x2fd6 <irsnd_ISR+0xa66>
    2720:	84 e4       	ldi	r24, 0x44	; 68
    2722:	80 93 b9 00 	sts	0x00B9, r24	; 0x8000b9 <startbit_pulse_len.2342>
    2726:	83 e4       	ldi	r24, 0x43	; 67
    2728:	90 e0       	ldi	r25, 0x00	; 0
    272a:	90 93 b8 00 	sts	0x00B8, r25	; 0x8000b8 <startbit_pause_len.2343+0x1>
    272e:	80 93 b7 00 	sts	0x00B7, r24	; 0x8000b7 <startbit_pause_len.2343>
    2732:	88 e0       	ldi	r24, 0x08	; 8
    2734:	80 93 b6 00 	sts	0x00B6, r24	; 0x8000b6 <pulse_1_len.2344>
    2738:	96 e1       	ldi	r25, 0x16	; 22
    273a:	90 93 b5 00 	sts	0x00B5, r25	; 0x8000b5 <pause_1_len.2345>
    273e:	80 93 b4 00 	sts	0x00B4, r24	; 0x8000b4 <pulse_0_len.2346>
    2742:	87 e0       	ldi	r24, 0x07	; 7
    2744:	80 93 b3 00 	sts	0x00B3, r24	; 0x8000b3 <pause_0_len.2347>
    2748:	81 e0       	ldi	r24, 0x01	; 1
    274a:	80 93 b2 00 	sts	0x00B2, r24	; 0x8000b2 <has_stop_bit.2348>
    274e:	90 e2       	ldi	r25, 0x20	; 32
    2750:	90 93 c4 00 	sts	0x00C4, r25	; 0x8000c4 <complete_data_len.2350>
    2754:	80 93 c3 00 	sts	0x00C3, r24	; 0x8000c3 <n_auto_repetitions.2352>
    2758:	81 ec       	ldi	r24, 0xC1	; 193
    275a:	92 e0       	ldi	r25, 0x02	; 2
    275c:	44 c3       	rjmp	.+1672   	; 0x2de6 <irsnd_ISR+0x876>
    275e:	80 31       	cpi	r24, 0x10	; 16
    2760:	09 f4       	brne	.+2      	; 0x2764 <irsnd_ISR+0x1f4>
    2762:	87 c3       	rjmp	.+1806   	; 0x2e72 <irsnd_ISR+0x902>
    2764:	08 f4       	brcc	.+2      	; 0x2768 <irsnd_ISR+0x1f8>
    2766:	6d c3       	rjmp	.+1754   	; 0x2e42 <irsnd_ISR+0x8d2>
    2768:	81 31       	cpi	r24, 0x11	; 17
    276a:	09 f4       	brne	.+2      	; 0x276e <irsnd_ISR+0x1fe>
    276c:	a4 c3       	rjmp	.+1864   	; 0x2eb6 <irsnd_ISR+0x946>
    276e:	84 31       	cpi	r24, 0x14	; 20
    2770:	09 f4       	brne	.+2      	; 0x2774 <irsnd_ISR+0x204>
    2772:	d9 c3       	rjmp	.+1970   	; 0x2f26 <irsnd_ISR+0x9b6>
    2774:	30 c4       	rjmp	.+2144   	; 0x2fd6 <irsnd_ISR+0xa66>
    2776:	82 32       	cpi	r24, 0x22	; 34
    2778:	09 f4       	brne	.+2      	; 0x277c <irsnd_ISR+0x20c>
    277a:	75 c2       	rjmp	.+1258   	; 0x2c66 <irsnd_ISR+0x6f6>
    277c:	08 f0       	brcs	.+2      	; 0x2780 <irsnd_ISR+0x210>
    277e:	77 c0       	rjmp	.+238    	; 0x286e <irsnd_ISR+0x2fe>
    2780:	8b 31       	cpi	r24, 0x1B	; 27
    2782:	09 f4       	brne	.+2      	; 0x2786 <irsnd_ISR+0x216>
    2784:	2b c1       	rjmp	.+598    	; 0x29dc <irsnd_ISR+0x46c>
    2786:	78 f5       	brcc	.+94     	; 0x27e6 <irsnd_ISR+0x276>
    2788:	87 31       	cpi	r24, 0x17	; 23
    278a:	09 f4       	brne	.+2      	; 0x278e <irsnd_ISR+0x21e>
    278c:	a7 c3       	rjmp	.+1870   	; 0x2edc <irsnd_ISR+0x96c>
    278e:	08 f4       	brcc	.+2      	; 0x2792 <irsnd_ISR+0x222>
    2790:	f2 c3       	rjmp	.+2020   	; 0x2f76 <irsnd_ISR+0xa06>
    2792:	88 31       	cpi	r24, 0x18	; 24
    2794:	09 f0       	breq	.+2      	; 0x2798 <irsnd_ISR+0x228>
    2796:	1f c4       	rjmp	.+2110   	; 0x2fd6 <irsnd_ISR+0xa66>
    2798:	88 e0       	ldi	r24, 0x08	; 8
    279a:	80 93 b9 00 	sts	0x00B9, r24	; 0x8000b9 <startbit_pulse_len.2342>
    279e:	27 e2       	ldi	r18, 0x27	; 39
    27a0:	30 e0       	ldi	r19, 0x00	; 0
    27a2:	30 93 b8 00 	sts	0x00B8, r19	; 0x8000b8 <startbit_pause_len.2343+0x1>
    27a6:	20 93 b7 00 	sts	0x00B7, r18	; 0x8000b7 <startbit_pause_len.2343>
    27aa:	80 93 68 00 	sts	0x0068, r24	; 0x800068 <pulse_len.2360>
    27ae:	88 e0       	ldi	r24, 0x08	; 8
    27b0:	90 e0       	ldi	r25, 0x00	; 0
    27b2:	90 93 67 00 	sts	0x0067, r25	; 0x800067 <pause_len.2361+0x1>
    27b6:	80 93 66 00 	sts	0x0066, r24	; 0x800066 <pause_len.2361>
    27ba:	10 92 b2 00 	sts	0x00B2, r1	; 0x8000b2 <has_stop_bit.2348>
    27be:	87 e0       	ldi	r24, 0x07	; 7
    27c0:	80 93 c4 00 	sts	0x00C4, r24	; 0x8000c4 <complete_data_len.2350>
    27c4:	82 e0       	ldi	r24, 0x02	; 2
    27c6:	80 93 c3 00 	sts	0x00C3, r24	; 0x8000c3 <n_auto_repetitions.2352>
    27ca:	8d e4       	ldi	r24, 0x4D	; 77
    27cc:	91 e0       	ldi	r25, 0x01	; 1
    27ce:	90 93 c6 00 	sts	0x00C6, r25	; 0x8000c6 <auto_repetition_pause_len.2354+0x1>
    27d2:	80 93 c5 00 	sts	0x00C5, r24	; 0x8000c5 <auto_repetition_pause_len.2354>
    27d6:	86 ee       	ldi	r24, 0xE6	; 230
    27d8:	96 e0       	ldi	r25, 0x06	; 6
    27da:	90 93 c0 00 	sts	0x00C0, r25	; 0x8000c0 <repeat_frame_pause_len.2357+0x1>
    27de:	80 93 bf 00 	sts	0x00BF, r24	; 0x8000bf <repeat_frame_pause_len.2357>
    27e2:	87 ec       	ldi	r24, 0xC7	; 199
    27e4:	f6 c3       	rjmp	.+2028   	; 0x2fd2 <irsnd_ISR+0xa62>
    27e6:	8e 31       	cpi	r24, 0x1E	; 30
    27e8:	09 f4       	brne	.+2      	; 0x27ec <irsnd_ISR+0x27c>
    27ea:	a0 c2       	rjmp	.+1344   	; 0x2d2c <irsnd_ISR+0x7bc>
    27ec:	e0 f4       	brcc	.+56     	; 0x2826 <irsnd_ISR+0x2b6>
    27ee:	8c 31       	cpi	r24, 0x1C	; 28
    27f0:	09 f0       	breq	.+2      	; 0x27f4 <irsnd_ISR+0x284>
    27f2:	f1 c3       	rjmp	.+2018   	; 0x2fd6 <irsnd_ISR+0xa66>
    27f4:	87 e8       	ldi	r24, 0x87	; 135
    27f6:	80 93 b9 00 	sts	0x00B9, r24	; 0x8000b9 <startbit_pulse_len.2342>
    27fa:	83 e4       	ldi	r24, 0x43	; 67
    27fc:	90 e0       	ldi	r25, 0x00	; 0
    27fe:	90 93 b8 00 	sts	0x00B8, r25	; 0x8000b8 <startbit_pause_len.2343+0x1>
    2802:	80 93 b7 00 	sts	0x00B7, r24	; 0x8000b7 <startbit_pause_len.2343>
    2806:	88 e0       	ldi	r24, 0x08	; 8
    2808:	80 93 b6 00 	sts	0x00B6, r24	; 0x8000b6 <pulse_1_len.2344>
    280c:	98 e1       	ldi	r25, 0x18	; 24
    280e:	90 93 b5 00 	sts	0x00B5, r25	; 0x8000b5 <pause_1_len.2345>
    2812:	80 93 b4 00 	sts	0x00B4, r24	; 0x8000b4 <pulse_0_len.2346>
    2816:	87 e0       	ldi	r24, 0x07	; 7
    2818:	80 93 b3 00 	sts	0x00B3, r24	; 0x8000b3 <pause_0_len.2347>
    281c:	81 e0       	ldi	r24, 0x01	; 1
    281e:	80 93 b2 00 	sts	0x00B2, r24	; 0x8000b2 <has_stop_bit.2348>
    2822:	9a e2       	ldi	r25, 0x2A	; 42
    2824:	f3 c0       	rjmp	.+486    	; 0x2a0c <irsnd_ISR+0x49c>
    2826:	8f 31       	cpi	r24, 0x1F	; 31
    2828:	09 f4       	brne	.+2      	; 0x282c <irsnd_ISR+0x2bc>
    282a:	98 c2       	rjmp	.+1328   	; 0x2d5c <irsnd_ISR+0x7ec>
    282c:	80 32       	cpi	r24, 0x20	; 32
    282e:	09 f0       	breq	.+2      	; 0x2832 <irsnd_ISR+0x2c2>
    2830:	d2 c3       	rjmp	.+1956   	; 0x2fd6 <irsnd_ISR+0xa66>
    2832:	24 e0       	ldi	r18, 0x04	; 4
    2834:	20 93 b9 00 	sts	0x00B9, r18	; 0x8000b9 <startbit_pulse_len.2342>
    2838:	82 e0       	ldi	r24, 0x02	; 2
    283a:	90 e0       	ldi	r25, 0x00	; 0
    283c:	90 93 b8 00 	sts	0x00B8, r25	; 0x8000b8 <startbit_pause_len.2343+0x1>
    2840:	80 93 b7 00 	sts	0x00B7, r24	; 0x8000b7 <startbit_pause_len.2343>
    2844:	20 93 68 00 	sts	0x0068, r18	; 0x800068 <pulse_len.2360>
    2848:	90 93 67 00 	sts	0x0067, r25	; 0x800067 <pause_len.2361+0x1>
    284c:	80 93 66 00 	sts	0x0066, r24	; 0x800066 <pause_len.2361>
    2850:	10 92 b2 00 	sts	0x00B2, r1	; 0x8000b2 <has_stop_bit.2348>
    2854:	82 e1       	ldi	r24, 0x12	; 18
    2856:	80 93 c4 00 	sts	0x00C4, r24	; 0x8000c4 <complete_data_len.2350>
    285a:	81 e0       	ldi	r24, 0x01	; 1
    285c:	80 93 c3 00 	sts	0x00C3, r24	; 0x8000c3 <n_auto_repetitions.2352>
    2860:	10 92 c6 00 	sts	0x00C6, r1	; 0x8000c6 <auto_repetition_pause_len.2354+0x1>
    2864:	10 92 c5 00 	sts	0x00C5, r1	; 0x8000c5 <auto_repetition_pause_len.2354>
    2868:	8e ee       	ldi	r24, 0xEE	; 238
    286a:	92 e0       	ldi	r25, 0x02	; 2
    286c:	ad c3       	rjmp	.+1882   	; 0x2fc8 <irsnd_ISR+0xa58>
    286e:	81 33       	cpi	r24, 0x31	; 49
    2870:	09 f4       	brne	.+2      	; 0x2874 <irsnd_ISR+0x304>
    2872:	94 c1       	rjmp	.+808    	; 0x2b9c <irsnd_ISR+0x62c>
    2874:	08 f0       	brcs	.+2      	; 0x2878 <irsnd_ISR+0x308>
    2876:	3f c0       	rjmp	.+126    	; 0x28f6 <irsnd_ISR+0x386>
    2878:	88 32       	cpi	r24, 0x28	; 40
    287a:	09 f4       	brne	.+2      	; 0x287e <irsnd_ISR+0x30e>
    287c:	eb c0       	rjmp	.+470    	; 0x2a54 <irsnd_ISR+0x4e4>
    287e:	f8 f4       	brcc	.+62     	; 0x28be <irsnd_ISR+0x34e>
    2880:	87 32       	cpi	r24, 0x27	; 39
    2882:	09 f0       	breq	.+2      	; 0x2886 <irsnd_ISR+0x316>
    2884:	a8 c3       	rjmp	.+1872   	; 0x2fd6 <irsnd_ISR+0xa66>
    2886:	87 e0       	ldi	r24, 0x07	; 7
    2888:	80 93 b9 00 	sts	0x00B9, r24	; 0x8000b9 <startbit_pulse_len.2342>
    288c:	22 e1       	ldi	r18, 0x12	; 18
    288e:	30 e0       	ldi	r19, 0x00	; 0
    2890:	30 93 b8 00 	sts	0x00B8, r19	; 0x8000b8 <startbit_pause_len.2343+0x1>
    2894:	20 93 b7 00 	sts	0x00B7, r18	; 0x8000b7 <startbit_pause_len.2343>
    2898:	93 e1       	ldi	r25, 0x13	; 19
    289a:	90 93 b6 00 	sts	0x00B6, r25	; 0x8000b6 <pulse_1_len.2344>
    289e:	96 e0       	ldi	r25, 0x06	; 6
    28a0:	90 93 b5 00 	sts	0x00B5, r25	; 0x8000b5 <pause_1_len.2345>
    28a4:	80 93 b4 00 	sts	0x00B4, r24	; 0x8000b4 <pulse_0_len.2346>
    28a8:	82 e1       	ldi	r24, 0x12	; 18
    28aa:	80 93 b3 00 	sts	0x00B3, r24	; 0x8000b3 <pause_0_len.2347>
    28ae:	81 e0       	ldi	r24, 0x01	; 1
    28b0:	80 93 b2 00 	sts	0x00B2, r24	; 0x8000b2 <has_stop_bit.2348>
    28b4:	8a e0       	ldi	r24, 0x0A	; 10
    28b6:	80 93 c4 00 	sts	0x00C4, r24	; 0x8000c4 <complete_data_len.2350>
    28ba:	82 e0       	ldi	r24, 0x02	; 2
    28bc:	90 c2       	rjmp	.+1312   	; 0x2dde <irsnd_ISR+0x86e>
    28be:	89 32       	cpi	r24, 0x29	; 41
    28c0:	09 f4       	brne	.+2      	; 0x28c4 <irsnd_ISR+0x354>
    28c2:	04 c1       	rjmp	.+520    	; 0x2acc <irsnd_ISR+0x55c>
    28c4:	8b 32       	cpi	r24, 0x2B	; 43
    28c6:	09 f0       	breq	.+2      	; 0x28ca <irsnd_ISR+0x35a>
    28c8:	86 c3       	rjmp	.+1804   	; 0x2fd6 <irsnd_ISR+0xa66>
    28ca:	83 ec       	ldi	r24, 0xC3	; 195
    28cc:	80 93 b9 00 	sts	0x00B9, r24	; 0x8000b9 <startbit_pulse_len.2342>
    28d0:	8d e2       	ldi	r24, 0x2D	; 45
    28d2:	90 e0       	ldi	r25, 0x00	; 0
    28d4:	90 93 b8 00 	sts	0x00B8, r25	; 0x8000b8 <startbit_pause_len.2343+0x1>
    28d8:	80 93 b7 00 	sts	0x00B7, r24	; 0x8000b7 <startbit_pause_len.2343>
    28dc:	86 e0       	ldi	r24, 0x06	; 6
    28de:	80 93 c4 00 	sts	0x00C4, r24	; 0x8000c4 <complete_data_len.2350>
    28e2:	8f e0       	ldi	r24, 0x0F	; 15
    28e4:	80 93 b6 00 	sts	0x00B6, r24	; 0x8000b6 <pulse_1_len.2344>
    28e8:	9c e2       	ldi	r25, 0x2C	; 44
    28ea:	90 93 b5 00 	sts	0x00B5, r25	; 0x8000b5 <pause_1_len.2345>
    28ee:	80 93 b4 00 	sts	0x00B4, r24	; 0x8000b4 <pulse_0_len.2346>
    28f2:	8e e0       	ldi	r24, 0x0E	; 14
    28f4:	5c c3       	rjmp	.+1720   	; 0x2fae <irsnd_ISR+0xa3e>
    28f6:	88 33       	cpi	r24, 0x38	; 56
    28f8:	09 f4       	brne	.+2      	; 0x28fc <irsnd_ISR+0x38c>
    28fa:	49 c0       	rjmp	.+146    	; 0x298e <irsnd_ISR+0x41e>
    28fc:	c8 f4       	brcc	.+50     	; 0x2930 <irsnd_ISR+0x3c0>
    28fe:	84 33       	cpi	r24, 0x34	; 52
    2900:	09 f0       	breq	.+2      	; 0x2904 <irsnd_ISR+0x394>
    2902:	69 c3       	rjmp	.+1746   	; 0x2fd6 <irsnd_ISR+0xa66>
    2904:	8d e0       	ldi	r24, 0x0D	; 13
    2906:	80 93 b9 00 	sts	0x00B9, r24	; 0x8000b9 <startbit_pulse_len.2342>
    290a:	8f e0       	ldi	r24, 0x0F	; 15
    290c:	90 e0       	ldi	r25, 0x00	; 0
    290e:	90 93 b8 00 	sts	0x00B8, r25	; 0x8000b8 <startbit_pause_len.2343+0x1>
    2912:	80 93 b7 00 	sts	0x00B7, r24	; 0x8000b7 <startbit_pause_len.2343>
    2916:	80 e1       	ldi	r24, 0x10	; 16
    2918:	80 93 c4 00 	sts	0x00C4, r24	; 0x8000c4 <complete_data_len.2350>
    291c:	86 e0       	ldi	r24, 0x06	; 6
    291e:	80 93 b6 00 	sts	0x00B6, r24	; 0x8000b6 <pulse_1_len.2344>
    2922:	9c e0       	ldi	r25, 0x0C	; 12
    2924:	90 93 b5 00 	sts	0x00B5, r25	; 0x8000b5 <pause_1_len.2345>
    2928:	80 93 b4 00 	sts	0x00B4, r24	; 0x8000b4 <pulse_0_len.2346>
    292c:	85 e0       	ldi	r24, 0x05	; 5
    292e:	39 c3       	rjmp	.+1650   	; 0x2fa2 <irsnd_ISR+0xa32>
    2930:	8c 33       	cpi	r24, 0x3C	; 60
    2932:	09 f4       	brne	.+2      	; 0x2936 <irsnd_ISR+0x3c6>
    2934:	76 c0       	rjmp	.+236    	; 0x2a22 <irsnd_ISR+0x4b2>
    2936:	8f 3f       	cpi	r24, 0xFF	; 255
    2938:	51 f1       	breq	.+84     	; 0x298e <irsnd_ISR+0x41e>
    293a:	4d c3       	rjmp	.+1690   	; 0x2fd6 <irsnd_ISR+0xa66>
    293c:	94 e2       	ldi	r25, 0x24	; 36
    293e:	90 93 b9 00 	sts	0x00B9, r25	; 0x8000b9 <startbit_pulse_len.2342>
    2942:	28 e0       	ldi	r18, 0x08	; 8
    2944:	30 e0       	ldi	r19, 0x00	; 0
    2946:	30 93 b8 00 	sts	0x00B8, r19	; 0x8000b8 <startbit_pause_len.2343+0x1>
    294a:	20 93 b7 00 	sts	0x00B7, r18	; 0x8000b7 <startbit_pause_len.2343>
    294e:	92 e1       	ldi	r25, 0x12	; 18
    2950:	90 93 b6 00 	sts	0x00B6, r25	; 0x8000b6 <pulse_1_len.2344>
    2954:	98 e0       	ldi	r25, 0x08	; 8
    2956:	90 93 b5 00 	sts	0x00B5, r25	; 0x8000b5 <pause_1_len.2345>
    295a:	29 e0       	ldi	r18, 0x09	; 9
    295c:	20 93 b4 00 	sts	0x00B4, r18	; 0x8000b4 <pulse_0_len.2346>
    2960:	90 93 b3 00 	sts	0x00B3, r25	; 0x8000b3 <pause_0_len.2347>
    2964:	10 92 b2 00 	sts	0x00B2, r1	; 0x8000b2 <has_stop_bit.2348>
    2968:	90 91 cf 00 	lds	r25, 0x00CF	; 0x8000cf <sircs_additional_bitlen>
    296c:	94 5f       	subi	r25, 0xF4	; 244
    296e:	90 93 c4 00 	sts	0x00C4, r25	; 0x8000c4 <complete_data_len.2350>
    2972:	90 91 b1 00 	lds	r25, 0x00B1	; 0x8000b1 <repeat_counter.2356>
    2976:	91 11       	cpse	r25, r1
    2978:	01 c0       	rjmp	.+2      	; 0x297c <irsnd_ISR+0x40c>
    297a:	83 e0       	ldi	r24, 0x03	; 3
    297c:	80 93 c3 00 	sts	0x00C3, r24	; 0x8000c3 <n_auto_repetitions.2352>
    2980:	87 e7       	ldi	r24, 0x77	; 119
    2982:	91 e0       	ldi	r25, 0x01	; 1
    2984:	90 93 c6 00 	sts	0x00C6, r25	; 0x8000c6 <auto_repetition_pause_len.2354+0x1>
    2988:	80 93 c5 00 	sts	0x00C5, r24	; 0x8000c5 <auto_repetition_pause_len.2354>
    298c:	29 c1       	rjmp	.+594    	; 0x2be0 <irsnd_ISR+0x670>
    298e:	87 e8       	ldi	r24, 0x87	; 135
    2990:	80 93 b9 00 	sts	0x00B9, r24	; 0x8000b9 <startbit_pulse_len.2342>
    2994:	80 91 b1 00 	lds	r24, 0x00B1	; 0x8000b1 <repeat_counter.2356>
    2998:	81 11       	cpse	r24, r1
    299a:	04 c0       	rjmp	.+8      	; 0x29a4 <irsnd_ISR+0x434>
    299c:	80 91 de 00 	lds	r24, 0x00DE	; 0x8000de <irsnd_protocol>
    29a0:	8f 3f       	cpi	r24, 0xFF	; 255
    29a2:	49 f4       	brne	.+18     	; 0x29b6 <irsnd_ISR+0x446>
    29a4:	81 e2       	ldi	r24, 0x21	; 33
    29a6:	90 e0       	ldi	r25, 0x00	; 0
    29a8:	90 93 b8 00 	sts	0x00B8, r25	; 0x8000b8 <startbit_pause_len.2343+0x1>
    29ac:	80 93 b7 00 	sts	0x00B7, r24	; 0x8000b7 <startbit_pause_len.2343>
    29b0:	10 92 c4 00 	sts	0x00C4, r1	; 0x8000c4 <complete_data_len.2350>
    29b4:	09 c0       	rjmp	.+18     	; 0x29c8 <irsnd_ISR+0x458>
    29b6:	83 e4       	ldi	r24, 0x43	; 67
    29b8:	90 e0       	ldi	r25, 0x00	; 0
    29ba:	90 93 b8 00 	sts	0x00B8, r25	; 0x8000b8 <startbit_pause_len.2343+0x1>
    29be:	80 93 b7 00 	sts	0x00B7, r24	; 0x8000b7 <startbit_pause_len.2343>
    29c2:	80 e2       	ldi	r24, 0x20	; 32
    29c4:	80 93 c4 00 	sts	0x00C4, r24	; 0x8000c4 <complete_data_len.2350>
    29c8:	88 e0       	ldi	r24, 0x08	; 8
    29ca:	80 93 b6 00 	sts	0x00B6, r24	; 0x8000b6 <pulse_1_len.2344>
    29ce:	98 e1       	ldi	r25, 0x18	; 24
    29d0:	90 93 b5 00 	sts	0x00B5, r25	; 0x8000b5 <pause_1_len.2345>
    29d4:	80 93 b4 00 	sts	0x00B4, r24	; 0x8000b4 <pulse_0_len.2346>
    29d8:	87 e0       	ldi	r24, 0x07	; 7
    29da:	e3 c2       	rjmp	.+1478   	; 0x2fa2 <irsnd_ISR+0xa32>
    29dc:	87 e8       	ldi	r24, 0x87	; 135
    29de:	80 93 b9 00 	sts	0x00B9, r24	; 0x8000b9 <startbit_pulse_len.2342>
    29e2:	83 e4       	ldi	r24, 0x43	; 67
    29e4:	90 e0       	ldi	r25, 0x00	; 0
    29e6:	90 93 b8 00 	sts	0x00B8, r25	; 0x8000b8 <startbit_pause_len.2343+0x1>
    29ea:	80 93 b7 00 	sts	0x00B7, r24	; 0x8000b7 <startbit_pause_len.2343>
    29ee:	88 e0       	ldi	r24, 0x08	; 8
    29f0:	80 93 b6 00 	sts	0x00B6, r24	; 0x8000b6 <pulse_1_len.2344>
    29f4:	98 e1       	ldi	r25, 0x18	; 24
    29f6:	90 93 b5 00 	sts	0x00B5, r25	; 0x8000b5 <pause_1_len.2345>
    29fa:	80 93 b4 00 	sts	0x00B4, r24	; 0x8000b4 <pulse_0_len.2346>
    29fe:	87 e0       	ldi	r24, 0x07	; 7
    2a00:	80 93 b3 00 	sts	0x00B3, r24	; 0x8000b3 <pause_0_len.2347>
    2a04:	81 e0       	ldi	r24, 0x01	; 1
    2a06:	80 93 b2 00 	sts	0x00B2, r24	; 0x8000b2 <has_stop_bit.2348>
    2a0a:	91 e1       	ldi	r25, 0x11	; 17
    2a0c:	90 93 c4 00 	sts	0x00C4, r25	; 0x8000c4 <complete_data_len.2350>
    2a10:	80 93 c3 00 	sts	0x00C3, r24	; 0x8000c3 <n_auto_repetitions.2352>
    2a14:	10 92 c6 00 	sts	0x00C6, r1	; 0x8000c6 <auto_repetition_pause_len.2354+0x1>
    2a18:	10 92 c5 00 	sts	0x00C5, r1	; 0x8000c5 <auto_repetition_pause_len.2354>
    2a1c:	88 e5       	ldi	r24, 0x58	; 88
    2a1e:	92 e0       	ldi	r25, 0x02	; 2
    2a20:	d3 c2       	rjmp	.+1446   	; 0x2fc8 <irsnd_ISR+0xa58>
    2a22:	84 e8       	ldi	r24, 0x84	; 132
    2a24:	80 93 b9 00 	sts	0x00B9, r24	; 0x8000b9 <startbit_pulse_len.2342>
    2a28:	8d e3       	ldi	r24, 0x3D	; 61
    2a2a:	90 e0       	ldi	r25, 0x00	; 0
    2a2c:	90 93 b8 00 	sts	0x00B8, r25	; 0x8000b8 <startbit_pause_len.2343+0x1>
    2a30:	80 93 b7 00 	sts	0x00B7, r24	; 0x8000b7 <startbit_pause_len.2343>
    2a34:	8f e0       	ldi	r24, 0x0F	; 15
    2a36:	80 93 b6 00 	sts	0x00B6, r24	; 0x8000b6 <pulse_1_len.2344>
    2a3a:	80 e1       	ldi	r24, 0x10	; 16
    2a3c:	80 93 b5 00 	sts	0x00B5, r24	; 0x8000b5 <pause_1_len.2345>
    2a40:	87 e0       	ldi	r24, 0x07	; 7
    2a42:	80 93 b4 00 	sts	0x00B4, r24	; 0x8000b4 <pulse_0_len.2346>
    2a46:	98 e0       	ldi	r25, 0x08	; 8
    2a48:	90 93 b3 00 	sts	0x00B3, r25	; 0x8000b3 <pause_0_len.2347>
    2a4c:	81 e0       	ldi	r24, 0x01	; 1
    2a4e:	80 93 b2 00 	sts	0x00B2, r24	; 0x8000b2 <has_stop_bit.2348>
    2a52:	dc cf       	rjmp	.-72     	; 0x2a0c <irsnd_ISR+0x49c>
    2a54:	87 e8       	ldi	r24, 0x87	; 135
    2a56:	80 93 b9 00 	sts	0x00B9, r24	; 0x8000b9 <startbit_pulse_len.2342>
    2a5a:	83 e4       	ldi	r24, 0x43	; 67
    2a5c:	90 e0       	ldi	r25, 0x00	; 0
    2a5e:	90 93 b8 00 	sts	0x00B8, r25	; 0x8000b8 <startbit_pause_len.2343+0x1>
    2a62:	80 93 b7 00 	sts	0x00B7, r24	; 0x8000b7 <startbit_pause_len.2343>
    2a66:	88 e0       	ldi	r24, 0x08	; 8
    2a68:	80 93 b6 00 	sts	0x00B6, r24	; 0x8000b6 <pulse_1_len.2344>
    2a6c:	98 e1       	ldi	r25, 0x18	; 24
    2a6e:	90 93 b5 00 	sts	0x00B5, r25	; 0x8000b5 <pause_1_len.2345>
    2a72:	80 93 b4 00 	sts	0x00B4, r24	; 0x8000b4 <pulse_0_len.2346>
    2a76:	87 e0       	ldi	r24, 0x07	; 7
    2a78:	80 93 b3 00 	sts	0x00B3, r24	; 0x8000b3 <pause_0_len.2347>
    2a7c:	81 e0       	ldi	r24, 0x01	; 1
    2a7e:	80 93 b2 00 	sts	0x00B2, r24	; 0x8000b2 <has_stop_bit.2348>
    2a82:	9c e1       	ldi	r25, 0x1C	; 28
    2a84:	c3 cf       	rjmp	.-122    	; 0x2a0c <irsnd_ISR+0x49c>
    2a86:	84 e4       	ldi	r24, 0x44	; 68
    2a88:	80 93 b9 00 	sts	0x00B9, r24	; 0x8000b9 <startbit_pulse_len.2342>
    2a8c:	83 e4       	ldi	r24, 0x43	; 67
    2a8e:	90 e0       	ldi	r25, 0x00	; 0
    2a90:	90 93 b8 00 	sts	0x00B8, r25	; 0x8000b8 <startbit_pause_len.2343+0x1>
    2a94:	80 93 b7 00 	sts	0x00B7, r24	; 0x8000b7 <startbit_pause_len.2343>
    2a98:	88 e0       	ldi	r24, 0x08	; 8
    2a9a:	80 93 b6 00 	sts	0x00B6, r24	; 0x8000b6 <pulse_1_len.2344>
    2a9e:	96 e1       	ldi	r25, 0x16	; 22
    2aa0:	90 93 b5 00 	sts	0x00B5, r25	; 0x8000b5 <pause_1_len.2345>
    2aa4:	80 93 b4 00 	sts	0x00B4, r24	; 0x8000b4 <pulse_0_len.2346>
    2aa8:	87 e0       	ldi	r24, 0x07	; 7
    2aaa:	80 93 b3 00 	sts	0x00B3, r24	; 0x8000b3 <pause_0_len.2347>
    2aae:	81 e0       	ldi	r24, 0x01	; 1
    2ab0:	80 93 b2 00 	sts	0x00B2, r24	; 0x8000b2 <has_stop_bit.2348>
    2ab4:	95 e2       	ldi	r25, 0x25	; 37
    2ab6:	90 93 c4 00 	sts	0x00C4, r25	; 0x8000c4 <complete_data_len.2350>
    2aba:	80 93 c3 00 	sts	0x00C3, r24	; 0x8000c3 <n_auto_repetitions.2352>
    2abe:	10 92 c6 00 	sts	0x00C6, r1	; 0x8000c6 <auto_repetition_pause_len.2354+0x1>
    2ac2:	10 92 c5 00 	sts	0x00C5, r1	; 0x8000c5 <auto_repetition_pause_len.2354>
    2ac6:	87 e7       	ldi	r24, 0x77	; 119
    2ac8:	91 e0       	ldi	r25, 0x01	; 1
    2aca:	7e c2       	rjmp	.+1276   	; 0x2fc8 <irsnd_ISR+0xa58>
    2acc:	84 e4       	ldi	r24, 0x44	; 68
    2ace:	80 93 b9 00 	sts	0x00B9, r24	; 0x8000b9 <startbit_pulse_len.2342>
    2ad2:	83 e4       	ldi	r24, 0x43	; 67
    2ad4:	90 e0       	ldi	r25, 0x00	; 0
    2ad6:	90 93 b8 00 	sts	0x00B8, r25	; 0x8000b8 <startbit_pause_len.2343+0x1>
    2ada:	80 93 b7 00 	sts	0x00B7, r24	; 0x8000b7 <startbit_pause_len.2343>
    2ade:	88 e0       	ldi	r24, 0x08	; 8
    2ae0:	80 93 b6 00 	sts	0x00B6, r24	; 0x8000b6 <pulse_1_len.2344>
    2ae4:	96 e1       	ldi	r25, 0x16	; 22
    2ae6:	90 93 b5 00 	sts	0x00B5, r25	; 0x8000b5 <pause_1_len.2345>
    2aea:	80 93 b4 00 	sts	0x00B4, r24	; 0x8000b4 <pulse_0_len.2346>
    2aee:	87 e0       	ldi	r24, 0x07	; 7
    2af0:	80 93 b3 00 	sts	0x00B3, r24	; 0x8000b3 <pause_0_len.2347>
    2af4:	81 e0       	ldi	r24, 0x01	; 1
    2af6:	80 93 b2 00 	sts	0x00B2, r24	; 0x8000b2 <has_stop_bit.2348>
    2afa:	80 e3       	ldi	r24, 0x30	; 48
    2afc:	80 93 c4 00 	sts	0x00C4, r24	; 0x8000c4 <complete_data_len.2350>
    2b00:	82 e0       	ldi	r24, 0x02	; 2
    2b02:	80 93 c3 00 	sts	0x00C3, r24	; 0x8000c3 <n_auto_repetitions.2352>
    2b06:	8b e4       	ldi	r24, 0x4B	; 75
    2b08:	90 e0       	ldi	r25, 0x00	; 0
    2b0a:	90 93 c6 00 	sts	0x00C6, r25	; 0x8000c6 <auto_repetition_pause_len.2354+0x1>
    2b0e:	80 93 c5 00 	sts	0x00C5, r24	; 0x8000c5 <auto_repetition_pause_len.2354>
    2b12:	81 ec       	ldi	r24, 0xC1	; 193
    2b14:	92 e0       	ldi	r25, 0x02	; 2
    2b16:	58 c2       	rjmp	.+1200   	; 0x2fc8 <irsnd_ISR+0xa58>
    2b18:	84 e3       	ldi	r24, 0x34	; 52
    2b1a:	80 93 b9 00 	sts	0x00B9, r24	; 0x8000b9 <startbit_pulse_len.2342>
    2b1e:	83 e3       	ldi	r24, 0x33	; 51
    2b20:	90 e0       	ldi	r25, 0x00	; 0
    2b22:	90 93 b8 00 	sts	0x00B8, r25	; 0x8000b8 <startbit_pause_len.2343+0x1>
    2b26:	80 93 b7 00 	sts	0x00B7, r24	; 0x8000b7 <startbit_pause_len.2343>
    2b2a:	8d e0       	ldi	r24, 0x0D	; 13
    2b2c:	80 93 b6 00 	sts	0x00B6, r24	; 0x8000b6 <pulse_1_len.2344>
    2b30:	96 e2       	ldi	r25, 0x26	; 38
    2b32:	90 93 b5 00 	sts	0x00B5, r25	; 0x8000b5 <pause_1_len.2345>
    2b36:	80 93 b4 00 	sts	0x00B4, r24	; 0x8000b4 <pulse_0_len.2346>
    2b3a:	8c e0       	ldi	r24, 0x0C	; 12
    2b3c:	80 93 b3 00 	sts	0x00B3, r24	; 0x8000b3 <pause_0_len.2347>
    2b40:	81 e0       	ldi	r24, 0x01	; 1
    2b42:	80 93 b2 00 	sts	0x00B2, r24	; 0x8000b2 <has_stop_bit.2348>
    2b46:	98 e1       	ldi	r25, 0x18	; 24
    2b48:	90 93 c4 00 	sts	0x00C4, r25	; 0x8000c4 <complete_data_len.2350>
    2b4c:	80 93 c3 00 	sts	0x00C3, r24	; 0x8000c3 <n_auto_repetitions.2352>
    2b50:	10 92 c6 00 	sts	0x00C6, r1	; 0x8000c6 <auto_repetition_pause_len.2354+0x1>
    2b54:	10 92 c5 00 	sts	0x00C5, r1	; 0x8000c5 <auto_repetition_pause_len.2354>
    2b58:	88 e5       	ldi	r24, 0x58	; 88
    2b5a:	92 e0       	ldi	r25, 0x02	; 2
    2b5c:	de c1       	rjmp	.+956    	; 0x2f1a <irsnd_ISR+0x9aa>
    2b5e:	83 e3       	ldi	r24, 0x33	; 51
    2b60:	80 93 b9 00 	sts	0x00B9, r24	; 0x8000b9 <startbit_pulse_len.2342>
    2b64:	88 e1       	ldi	r24, 0x18	; 24
    2b66:	90 e0       	ldi	r25, 0x00	; 0
    2b68:	90 93 b8 00 	sts	0x00B8, r25	; 0x8000b8 <startbit_pause_len.2343+0x1>
    2b6c:	80 93 b7 00 	sts	0x00B7, r24	; 0x8000b7 <startbit_pause_len.2343>
    2b70:	86 e0       	ldi	r24, 0x06	; 6
    2b72:	80 93 b6 00 	sts	0x00B6, r24	; 0x8000b6 <pulse_1_len.2344>
    2b76:	92 e1       	ldi	r25, 0x12	; 18
    2b78:	90 93 b5 00 	sts	0x00B5, r25	; 0x8000b5 <pause_1_len.2345>
    2b7c:	80 93 b4 00 	sts	0x00B4, r24	; 0x8000b4 <pulse_0_len.2346>
    2b80:	85 e0       	ldi	r24, 0x05	; 5
    2b82:	80 93 b3 00 	sts	0x00B3, r24	; 0x8000b3 <pause_0_len.2347>
    2b86:	81 e0       	ldi	r24, 0x01	; 1
    2b88:	80 93 b2 00 	sts	0x00B2, r24	; 0x8000b2 <has_stop_bit.2348>
    2b8c:	90 e3       	ldi	r25, 0x30	; 48
    2b8e:	90 93 c4 00 	sts	0x00C4, r25	; 0x8000c4 <complete_data_len.2350>
    2b92:	80 93 c3 00 	sts	0x00C3, r24	; 0x8000c3 <n_auto_repetitions.2352>
    2b96:	86 e5       	ldi	r24, 0x56	; 86
    2b98:	94 e0       	ldi	r25, 0x04	; 4
    2b9a:	25 c1       	rjmp	.+586    	; 0x2de6 <irsnd_ISR+0x876>
    2b9c:	80 e3       	ldi	r24, 0x30	; 48
    2b9e:	80 93 b9 00 	sts	0x00B9, r24	; 0x8000b9 <startbit_pulse_len.2342>
    2ba2:	86 e1       	ldi	r24, 0x16	; 22
    2ba4:	90 e0       	ldi	r25, 0x00	; 0
    2ba6:	90 93 b8 00 	sts	0x00B8, r25	; 0x8000b8 <startbit_pause_len.2343+0x1>
    2baa:	80 93 b7 00 	sts	0x00B7, r24	; 0x8000b7 <startbit_pause_len.2343>
    2bae:	86 e0       	ldi	r24, 0x06	; 6
    2bb0:	80 93 b6 00 	sts	0x00B6, r24	; 0x8000b6 <pulse_1_len.2344>
    2bb4:	91 e1       	ldi	r25, 0x11	; 17
    2bb6:	90 93 b5 00 	sts	0x00B5, r25	; 0x8000b5 <pause_1_len.2345>
    2bba:	80 93 b4 00 	sts	0x00B4, r24	; 0x8000b4 <pulse_0_len.2346>
    2bbe:	85 e0       	ldi	r24, 0x05	; 5
    2bc0:	80 93 b3 00 	sts	0x00B3, r24	; 0x8000b3 <pause_0_len.2347>
    2bc4:	81 e0       	ldi	r24, 0x01	; 1
    2bc6:	80 93 b2 00 	sts	0x00B2, r24	; 0x8000b2 <has_stop_bit.2348>
    2bca:	98 e5       	ldi	r25, 0x58	; 88
    2bcc:	90 93 c4 00 	sts	0x00C4, r25	; 0x8000c4 <complete_data_len.2350>
    2bd0:	80 93 c3 00 	sts	0x00C3, r24	; 0x8000c3 <n_auto_repetitions.2352>
    2bd4:	10 92 c6 00 	sts	0x00C6, r1	; 0x8000c6 <auto_repetition_pause_len.2354+0x1>
    2bd8:	10 92 c5 00 	sts	0x00C5, r1	; 0x8000c5 <auto_repetition_pause_len.2354>
    2bdc:	88 e5       	ldi	r24, 0x58	; 88
    2bde:	92 e0       	ldi	r25, 0x02	; 2
    2be0:	90 93 c0 00 	sts	0x00C0, r25	; 0x8000c0 <repeat_frame_pause_len.2357+0x1>
    2be4:	80 93 bf 00 	sts	0x00BF, r24	; 0x8000bf <repeat_frame_pause_len.2357>
    2be8:	85 e9       	ldi	r24, 0x95	; 149
    2bea:	f3 c1       	rjmp	.+998    	; 0x2fd2 <irsnd_ISR+0xa62>
    2bec:	82 e0       	ldi	r24, 0x02	; 2
    2bee:	80 93 b9 00 	sts	0x00B9, r24	; 0x8000b9 <startbit_pulse_len.2342>
    2bf2:	2e e6       	ldi	r18, 0x6E	; 110
    2bf4:	30 e0       	ldi	r19, 0x00	; 0
    2bf6:	30 93 b8 00 	sts	0x00B8, r19	; 0x8000b8 <startbit_pause_len.2343+0x1>
    2bfa:	20 93 b7 00 	sts	0x00B7, r18	; 0x8000b7 <startbit_pause_len.2343>
    2bfe:	80 93 b6 00 	sts	0x00B6, r24	; 0x8000b6 <pulse_1_len.2344>
    2c02:	9e e6       	ldi	r25, 0x6E	; 110
    2c04:	90 93 b5 00 	sts	0x00B5, r25	; 0x8000b5 <pause_1_len.2345>
    2c08:	80 93 b4 00 	sts	0x00B4, r24	; 0x8000b4 <pulse_0_len.2346>
    2c0c:	89 e4       	ldi	r24, 0x49	; 73
    2c0e:	80 93 b3 00 	sts	0x00B3, r24	; 0x8000b3 <pause_0_len.2347>
    2c12:	81 e0       	ldi	r24, 0x01	; 1
    2c14:	80 93 b2 00 	sts	0x00B2, r24	; 0x8000b2 <has_stop_bit.2348>
    2c18:	9a e0       	ldi	r25, 0x0A	; 10
    2c1a:	90 93 c4 00 	sts	0x00C4, r25	; 0x8000c4 <complete_data_len.2350>
    2c1e:	80 93 c3 00 	sts	0x00C3, r24	; 0x8000c3 <n_auto_repetitions.2352>
    2c22:	1a c0       	rjmp	.+52     	; 0x2c58 <irsnd_ISR+0x6e8>
    2c24:	92 e0       	ldi	r25, 0x02	; 2
    2c26:	90 93 b9 00 	sts	0x00B9, r25	; 0x8000b9 <startbit_pulse_len.2342>
    2c2a:	26 e3       	ldi	r18, 0x36	; 54
    2c2c:	30 e0       	ldi	r19, 0x00	; 0
    2c2e:	30 93 b8 00 	sts	0x00B8, r19	; 0x8000b8 <startbit_pause_len.2343+0x1>
    2c32:	20 93 b7 00 	sts	0x00B7, r18	; 0x8000b7 <startbit_pause_len.2343>
    2c36:	90 93 b6 00 	sts	0x00B6, r25	; 0x8000b6 <pulse_1_len.2344>
    2c3a:	2e e6       	ldi	r18, 0x6E	; 110
    2c3c:	20 93 b5 00 	sts	0x00B5, r18	; 0x8000b5 <pause_1_len.2345>
    2c40:	90 93 b4 00 	sts	0x00B4, r25	; 0x8000b4 <pulse_0_len.2346>
    2c44:	99 e4       	ldi	r25, 0x49	; 73
    2c46:	90 93 b3 00 	sts	0x00B3, r25	; 0x8000b3 <pause_0_len.2347>
    2c4a:	91 e0       	ldi	r25, 0x01	; 1
    2c4c:	90 93 b2 00 	sts	0x00B2, r25	; 0x8000b2 <has_stop_bit.2348>
    2c50:	80 93 c4 00 	sts	0x00C4, r24	; 0x8000c4 <complete_data_len.2350>
    2c54:	90 93 c3 00 	sts	0x00C3, r25	; 0x8000c3 <n_auto_repetitions.2352>
    2c58:	10 92 c6 00 	sts	0x00C6, r1	; 0x8000c6 <auto_repetition_pause_len.2354+0x1>
    2c5c:	10 92 c5 00 	sts	0x00C5, r1	; 0x8000c5 <auto_repetition_pause_len.2354>
    2c60:	83 ea       	ldi	r24, 0xA3	; 163
    2c62:	92 e0       	ldi	r25, 0x02	; 2
    2c64:	b1 c1       	rjmp	.+866    	; 0x2fc8 <irsnd_ISR+0xa58>
    2c66:	89 e0       	ldi	r24, 0x09	; 9
    2c68:	80 93 b9 00 	sts	0x00B9, r24	; 0x8000b9 <startbit_pulse_len.2342>
    2c6c:	26 e1       	ldi	r18, 0x16	; 22
    2c6e:	30 e0       	ldi	r19, 0x00	; 0
    2c70:	30 93 b8 00 	sts	0x00B8, r19	; 0x8000b8 <startbit_pause_len.2343+0x1>
    2c74:	20 93 b7 00 	sts	0x00B7, r18	; 0x8000b7 <startbit_pause_len.2343>
    2c78:	80 93 b6 00 	sts	0x00B6, r24	; 0x8000b6 <pulse_1_len.2344>
    2c7c:	96 e1       	ldi	r25, 0x16	; 22
    2c7e:	90 93 b5 00 	sts	0x00B5, r25	; 0x8000b5 <pause_1_len.2345>
    2c82:	80 93 b4 00 	sts	0x00B4, r24	; 0x8000b4 <pulse_0_len.2346>
    2c86:	88 e0       	ldi	r24, 0x08	; 8
    2c88:	80 93 b3 00 	sts	0x00B3, r24	; 0x8000b3 <pause_0_len.2347>
    2c8c:	81 e0       	ldi	r24, 0x01	; 1
    2c8e:	80 93 b2 00 	sts	0x00B2, r24	; 0x8000b2 <has_stop_bit.2348>
    2c92:	9f e0       	ldi	r25, 0x0F	; 15
    2c94:	90 93 c4 00 	sts	0x00C4, r25	; 0x8000c4 <complete_data_len.2350>
    2c98:	65 c1       	rjmp	.+714    	; 0x2f64 <irsnd_ISR+0x9f4>
    2c9a:	8d e0       	ldi	r24, 0x0D	; 13
    2c9c:	80 93 b9 00 	sts	0x00B9, r24	; 0x8000b9 <startbit_pulse_len.2342>
    2ca0:	2d e0       	ldi	r18, 0x0D	; 13
    2ca2:	30 e0       	ldi	r19, 0x00	; 0
    2ca4:	30 93 b8 00 	sts	0x00B8, r19	; 0x8000b8 <startbit_pause_len.2343+0x1>
    2ca8:	20 93 b7 00 	sts	0x00B7, r18	; 0x8000b7 <startbit_pause_len.2343>
    2cac:	80 93 68 00 	sts	0x0068, r24	; 0x800068 <pulse_len.2360>
    2cb0:	30 93 67 00 	sts	0x0067, r19	; 0x800067 <pause_len.2361+0x1>
    2cb4:	20 93 66 00 	sts	0x0066, r18	; 0x800066 <pause_len.2361>
    2cb8:	10 92 b2 00 	sts	0x00B2, r1	; 0x8000b2 <has_stop_bit.2348>
    2cbc:	80 93 c4 00 	sts	0x00C4, r24	; 0x8000c4 <complete_data_len.2350>
    2cc0:	81 e0       	ldi	r24, 0x01	; 1
    2cc2:	80 93 c3 00 	sts	0x00C3, r24	; 0x8000c3 <n_auto_repetitions.2352>
    2cc6:	10 92 c6 00 	sts	0x00C6, r1	; 0x8000c6 <auto_repetition_pause_len.2354+0x1>
    2cca:	10 92 c5 00 	sts	0x00C5, r1	; 0x8000c5 <auto_repetition_pause_len.2354>
    2cce:	86 e3       	ldi	r24, 0x36	; 54
    2cd0:	95 e0       	ldi	r25, 0x05	; 5
    2cd2:	23 c1       	rjmp	.+582    	; 0x2f1a <irsnd_ISR+0x9aa>
    2cd4:	88 e2       	ldi	r24, 0x28	; 40
    2cd6:	80 93 b9 00 	sts	0x00B9, r24	; 0x8000b9 <startbit_pulse_len.2342>
    2cda:	8c e0       	ldi	r24, 0x0C	; 12
    2cdc:	90 e0       	ldi	r25, 0x00	; 0
    2cde:	90 93 b8 00 	sts	0x00B8, r25	; 0x8000b8 <startbit_pause_len.2343+0x1>
    2ce2:	80 93 b7 00 	sts	0x00B7, r24	; 0x8000b7 <startbit_pause_len.2343>
    2ce6:	87 e0       	ldi	r24, 0x07	; 7
    2ce8:	80 93 68 00 	sts	0x0068, r24	; 0x800068 <pulse_len.2360>
    2cec:	87 e0       	ldi	r24, 0x07	; 7
    2cee:	90 e0       	ldi	r25, 0x00	; 0
    2cf0:	90 93 67 00 	sts	0x0067, r25	; 0x800067 <pause_len.2361+0x1>
    2cf4:	80 93 66 00 	sts	0x0066, r24	; 0x800066 <pause_len.2361>
    2cf8:	10 92 b2 00 	sts	0x00B2, r1	; 0x8000b2 <has_stop_bit.2348>
    2cfc:	85 e1       	ldi	r24, 0x15	; 21
    2cfe:	02 c1       	rjmp	.+516    	; 0x2f04 <irsnd_ISR+0x994>
    2d00:	88 e2       	ldi	r24, 0x28	; 40
    2d02:	80 93 b9 00 	sts	0x00B9, r24	; 0x8000b9 <startbit_pulse_len.2342>
    2d06:	8c e0       	ldi	r24, 0x0C	; 12
    2d08:	90 e0       	ldi	r25, 0x00	; 0
    2d0a:	90 93 b8 00 	sts	0x00B8, r25	; 0x8000b8 <startbit_pause_len.2343+0x1>
    2d0e:	80 93 b7 00 	sts	0x00B7, r24	; 0x8000b7 <startbit_pause_len.2343>
    2d12:	87 e0       	ldi	r24, 0x07	; 7
    2d14:	80 93 68 00 	sts	0x0068, r24	; 0x800068 <pulse_len.2360>
    2d18:	87 e0       	ldi	r24, 0x07	; 7
    2d1a:	90 e0       	ldi	r25, 0x00	; 0
    2d1c:	90 93 67 00 	sts	0x0067, r25	; 0x800067 <pause_len.2361+0x1>
    2d20:	80 93 66 00 	sts	0x0066, r24	; 0x800066 <pause_len.2361>
    2d24:	10 92 b2 00 	sts	0x00B2, r1	; 0x8000b2 <has_stop_bit.2348>
    2d28:	84 e2       	ldi	r24, 0x24	; 36
    2d2a:	ec c0       	rjmp	.+472    	; 0x2f04 <irsnd_ISR+0x994>
    2d2c:	10 92 b9 00 	sts	0x00B9, r1	; 0x8000b9 <startbit_pulse_len.2342>
    2d30:	10 92 b8 00 	sts	0x00B8, r1	; 0x8000b8 <startbit_pause_len.2343+0x1>
    2d34:	10 92 b7 00 	sts	0x00B7, r1	; 0x8000b7 <startbit_pause_len.2343>
    2d38:	88 e0       	ldi	r24, 0x08	; 8
    2d3a:	80 93 b6 00 	sts	0x00B6, r24	; 0x8000b6 <pulse_1_len.2344>
    2d3e:	93 e4       	ldi	r25, 0x43	; 67
    2d40:	90 93 b5 00 	sts	0x00B5, r25	; 0x8000b5 <pause_1_len.2345>
    2d44:	80 93 b4 00 	sts	0x00B4, r24	; 0x8000b4 <pulse_0_len.2346>
    2d48:	8d e1       	ldi	r24, 0x1D	; 29
    2d4a:	80 93 b3 00 	sts	0x00B3, r24	; 0x8000b3 <pause_0_len.2347>
    2d4e:	81 e0       	ldi	r24, 0x01	; 1
    2d50:	80 93 b2 00 	sts	0x00B2, r24	; 0x8000b2 <has_stop_bit.2348>
    2d54:	9c e0       	ldi	r25, 0x0C	; 12
    2d56:	90 93 c4 00 	sts	0x00C4, r25	; 0x8000c4 <complete_data_len.2350>
    2d5a:	41 c0       	rjmp	.+130    	; 0x2dde <irsnd_ISR+0x86e>
    2d5c:	90 e1       	ldi	r25, 0x10	; 16
    2d5e:	90 93 b9 00 	sts	0x00B9, r25	; 0x8000b9 <startbit_pulse_len.2342>
    2d62:	24 e1       	ldi	r18, 0x14	; 20
    2d64:	30 e0       	ldi	r19, 0x00	; 0
    2d66:	30 93 b8 00 	sts	0x00B8, r19	; 0x8000b8 <startbit_pause_len.2343+0x1>
    2d6a:	20 93 b7 00 	sts	0x00B7, r18	; 0x8000b7 <startbit_pause_len.2343>
    2d6e:	88 e0       	ldi	r24, 0x08	; 8
    2d70:	80 93 b6 00 	sts	0x00B6, r24	; 0x8000b6 <pulse_1_len.2344>
    2d74:	20 93 b5 00 	sts	0x00B5, r18	; 0x8000b5 <pause_1_len.2345>
    2d78:	80 93 b4 00 	sts	0x00B4, r24	; 0x8000b4 <pulse_0_len.2346>
    2d7c:	86 e0       	ldi	r24, 0x06	; 6
    2d7e:	80 93 b3 00 	sts	0x00B3, r24	; 0x8000b3 <pause_0_len.2347>
    2d82:	81 e0       	ldi	r24, 0x01	; 1
    2d84:	80 93 b2 00 	sts	0x00B2, r24	; 0x8000b2 <has_stop_bit.2348>
    2d88:	90 93 c4 00 	sts	0x00C4, r25	; 0x8000c4 <complete_data_len.2350>
    2d8c:	80 93 c3 00 	sts	0x00C3, r24	; 0x8000c3 <n_auto_repetitions.2352>
    2d90:	88 e5       	ldi	r24, 0x58	; 88
    2d92:	92 e0       	ldi	r25, 0x02	; 2
    2d94:	90 93 c6 00 	sts	0x00C6, r25	; 0x8000c6 <auto_repetition_pause_len.2354+0x1>
    2d98:	80 93 c5 00 	sts	0x00C5, r24	; 0x8000c5 <auto_repetition_pause_len.2354>
    2d9c:	be c0       	rjmp	.+380    	; 0x2f1a <irsnd_ISR+0x9aa>
    2d9e:	84 e1       	ldi	r24, 0x14	; 20
    2da0:	80 93 b9 00 	sts	0x00B9, r24	; 0x8000b9 <startbit_pulse_len.2342>
    2da4:	24 e0       	ldi	r18, 0x04	; 4
    2da6:	30 e0       	ldi	r19, 0x00	; 0
    2da8:	30 93 b8 00 	sts	0x00B8, r19	; 0x8000b8 <startbit_pause_len.2343+0x1>
    2dac:	20 93 b7 00 	sts	0x00B7, r18	; 0x8000b7 <startbit_pause_len.2343>
    2db0:	80 93 b6 00 	sts	0x00B6, r24	; 0x8000b6 <pulse_1_len.2344>
    2db4:	84 e0       	ldi	r24, 0x04	; 4
    2db6:	80 93 b5 00 	sts	0x00B5, r24	; 0x8000b5 <pause_1_len.2345>
    2dba:	88 e0       	ldi	r24, 0x08	; 8
    2dbc:	80 93 b4 00 	sts	0x00B4, r24	; 0x8000b4 <pulse_0_len.2346>
    2dc0:	83 e1       	ldi	r24, 0x13	; 19
    2dc2:	80 93 b3 00 	sts	0x00B3, r24	; 0x8000b3 <pause_0_len.2347>
    2dc6:	81 e0       	ldi	r24, 0x01	; 1
    2dc8:	80 93 b2 00 	sts	0x00B2, r24	; 0x8000b2 <has_stop_bit.2348>
    2dcc:	8a e0       	ldi	r24, 0x0A	; 10
    2dce:	80 93 c4 00 	sts	0x00C4, r24	; 0x8000c4 <complete_data_len.2350>
    2dd2:	82 e0       	ldi	r24, 0x02	; 2
    2dd4:	80 93 c3 00 	sts	0x00C3, r24	; 0x8000c3 <n_auto_repetitions.2352>
    2dd8:	8d e0       	ldi	r24, 0x0D	; 13
    2dda:	92 e0       	ldi	r25, 0x02	; 2
    2ddc:	db cf       	rjmp	.-74     	; 0x2d94 <irsnd_ISR+0x824>
    2dde:	80 93 c3 00 	sts	0x00C3, r24	; 0x8000c3 <n_auto_repetitions.2352>
    2de2:	8d e0       	ldi	r24, 0x0D	; 13
    2de4:	92 e0       	ldi	r25, 0x02	; 2
    2de6:	90 93 c6 00 	sts	0x00C6, r25	; 0x8000c6 <auto_repetition_pause_len.2354+0x1>
    2dea:	80 93 c5 00 	sts	0x00C5, r24	; 0x8000c5 <auto_repetition_pause_len.2354>
    2dee:	ec c0       	rjmp	.+472    	; 0x2fc8 <irsnd_ISR+0xa58>
    2df0:	83 e0       	ldi	r24, 0x03	; 3
    2df2:	80 93 b9 00 	sts	0x00B9, r24	; 0x8000b9 <startbit_pulse_len.2342>
    2df6:	2e e2       	ldi	r18, 0x2E	; 46
    2df8:	30 e0       	ldi	r19, 0x00	; 0
    2dfa:	30 93 b8 00 	sts	0x00B8, r19	; 0x8000b8 <startbit_pause_len.2343+0x1>
    2dfe:	20 93 b7 00 	sts	0x00B7, r18	; 0x8000b7 <startbit_pause_len.2343>
    2e02:	80 93 b6 00 	sts	0x00B6, r24	; 0x8000b6 <pulse_1_len.2344>
    2e06:	9c e8       	ldi	r25, 0x8C	; 140
    2e08:	90 93 b5 00 	sts	0x00B5, r25	; 0x8000b5 <pause_1_len.2345>
    2e0c:	80 93 b4 00 	sts	0x00B4, r24	; 0x8000b4 <pulse_0_len.2346>
    2e10:	8e e2       	ldi	r24, 0x2E	; 46
    2e12:	80 93 b3 00 	sts	0x00B3, r24	; 0x8000b3 <pause_0_len.2347>
    2e16:	81 e0       	ldi	r24, 0x01	; 1
    2e18:	80 93 b2 00 	sts	0x00B2, r24	; 0x8000b2 <has_stop_bit.2348>
    2e1c:	94 e1       	ldi	r25, 0x14	; 20
    2e1e:	90 93 c4 00 	sts	0x00C4, r25	; 0x8000c4 <complete_data_len.2350>
    2e22:	80 93 c3 00 	sts	0x00C3, r24	; 0x8000c3 <n_auto_repetitions.2352>
    2e26:	10 92 c6 00 	sts	0x00C6, r1	; 0x8000c6 <auto_repetition_pause_len.2354+0x1>
    2e2a:	10 92 c5 00 	sts	0x00C5, r1	; 0x8000c5 <auto_repetition_pause_len.2354>
    2e2e:	83 ea       	ldi	r24, 0xA3	; 163
    2e30:	92 e0       	ldi	r25, 0x02	; 2
    2e32:	90 93 c0 00 	sts	0x00C0, r25	; 0x8000c0 <repeat_frame_pause_len.2357+0x1>
    2e36:	80 93 bf 00 	sts	0x00BF, r24	; 0x8000bf <repeat_frame_pause_len.2357>
    2e3a:	10 92 b0 00 	sts	0x00B0, r1	; 0x8000b0 <last_bit_value.2359>
    2e3e:	8c e0       	ldi	r24, 0x0C	; 12
    2e40:	c8 c0       	rjmp	.+400    	; 0x2fd2 <irsnd_ISR+0xa62>
    2e42:	88 e0       	ldi	r24, 0x08	; 8
    2e44:	80 93 b9 00 	sts	0x00B9, r24	; 0x8000b9 <startbit_pulse_len.2342>
    2e48:	27 e2       	ldi	r18, 0x27	; 39
    2e4a:	30 e0       	ldi	r19, 0x00	; 0
    2e4c:	30 93 b8 00 	sts	0x00B8, r19	; 0x8000b8 <startbit_pause_len.2343+0x1>
    2e50:	20 93 b7 00 	sts	0x00B7, r18	; 0x8000b7 <startbit_pause_len.2343>
    2e54:	80 93 68 00 	sts	0x0068, r24	; 0x800068 <pulse_len.2360>
    2e58:	88 e0       	ldi	r24, 0x08	; 8
    2e5a:	90 e0       	ldi	r25, 0x00	; 0
    2e5c:	90 93 67 00 	sts	0x0067, r25	; 0x800067 <pause_len.2361+0x1>
    2e60:	80 93 66 00 	sts	0x0066, r24	; 0x800066 <pause_len.2361>
    2e64:	10 92 b2 00 	sts	0x00B2, r1	; 0x8000b2 <has_stop_bit.2348>
    2e68:	8a e0       	ldi	r24, 0x0A	; 10
    2e6a:	80 93 c4 00 	sts	0x00C4, r24	; 0x8000c4 <complete_data_len.2350>
    2e6e:	82 e0       	ldi	r24, 0x02	; 2
    2e70:	17 c0       	rjmp	.+46     	; 0x2ea0 <irsnd_ISR+0x930>
    2e72:	88 e0       	ldi	r24, 0x08	; 8
    2e74:	80 93 b9 00 	sts	0x00B9, r24	; 0x8000b9 <startbit_pulse_len.2342>
    2e78:	27 e2       	ldi	r18, 0x27	; 39
    2e7a:	30 e0       	ldi	r19, 0x00	; 0
    2e7c:	30 93 b8 00 	sts	0x00B8, r19	; 0x8000b8 <startbit_pause_len.2343+0x1>
    2e80:	20 93 b7 00 	sts	0x00B7, r18	; 0x8000b7 <startbit_pause_len.2343>
    2e84:	80 93 68 00 	sts	0x0068, r24	; 0x800068 <pulse_len.2360>
    2e88:	88 e0       	ldi	r24, 0x08	; 8
    2e8a:	90 e0       	ldi	r25, 0x00	; 0
    2e8c:	90 93 67 00 	sts	0x0067, r25	; 0x800067 <pause_len.2361+0x1>
    2e90:	80 93 66 00 	sts	0x0066, r24	; 0x800066 <pause_len.2361>
    2e94:	10 92 b2 00 	sts	0x00B2, r1	; 0x8000b2 <has_stop_bit.2348>
    2e98:	81 e1       	ldi	r24, 0x11	; 17
    2e9a:	80 93 c4 00 	sts	0x00C4, r24	; 0x8000c4 <complete_data_len.2350>
    2e9e:	83 e0       	ldi	r24, 0x03	; 3
    2ea0:	80 93 c3 00 	sts	0x00C3, r24	; 0x8000c3 <n_auto_repetitions.2352>
    2ea4:	8c e2       	ldi	r24, 0x2C	; 44
    2ea6:	91 e0       	ldi	r25, 0x01	; 1
    2ea8:	90 93 c6 00 	sts	0x00C6, r25	; 0x8000c6 <auto_repetition_pause_len.2354+0x1>
    2eac:	80 93 c5 00 	sts	0x00C5, r24	; 0x8000c5 <auto_repetition_pause_len.2354>
    2eb0:	86 ee       	ldi	r24, 0xE6	; 230
    2eb2:	96 e0       	ldi	r25, 0x06	; 6
    2eb4:	89 c0       	rjmp	.+274    	; 0x2fc8 <irsnd_ISR+0xa58>
    2eb6:	24 e0       	ldi	r18, 0x04	; 4
    2eb8:	20 93 b9 00 	sts	0x00B9, r18	; 0x8000b9 <startbit_pulse_len.2342>
    2ebc:	84 e0       	ldi	r24, 0x04	; 4
    2ebe:	90 e0       	ldi	r25, 0x00	; 0
    2ec0:	90 93 b8 00 	sts	0x00B8, r25	; 0x8000b8 <startbit_pause_len.2343+0x1>
    2ec4:	80 93 b7 00 	sts	0x00B7, r24	; 0x8000b7 <startbit_pause_len.2343>
    2ec8:	20 93 68 00 	sts	0x0068, r18	; 0x800068 <pulse_len.2360>
    2ecc:	90 93 67 00 	sts	0x0067, r25	; 0x800067 <pause_len.2361+0x1>
    2ed0:	80 93 66 00 	sts	0x0066, r24	; 0x800066 <pause_len.2361>
    2ed4:	10 92 b2 00 	sts	0x00B2, r1	; 0x8000b2 <has_stop_bit.2348>
    2ed8:	86 e1       	ldi	r24, 0x16	; 22
    2eda:	14 c0       	rjmp	.+40     	; 0x2f04 <irsnd_ISR+0x994>
    2edc:	84 e0       	ldi	r24, 0x04	; 4
    2ede:	80 93 b9 00 	sts	0x00B9, r24	; 0x8000b9 <startbit_pulse_len.2342>
    2ee2:	28 e0       	ldi	r18, 0x08	; 8
    2ee4:	30 e0       	ldi	r19, 0x00	; 0
    2ee6:	30 93 b8 00 	sts	0x00B8, r19	; 0x8000b8 <startbit_pause_len.2343+0x1>
    2eea:	20 93 b7 00 	sts	0x00B7, r18	; 0x8000b7 <startbit_pause_len.2343>
    2eee:	80 93 68 00 	sts	0x0068, r24	; 0x800068 <pulse_len.2360>
    2ef2:	84 e0       	ldi	r24, 0x04	; 4
    2ef4:	90 e0       	ldi	r25, 0x00	; 0
    2ef6:	90 93 67 00 	sts	0x0067, r25	; 0x800067 <pause_len.2361+0x1>
    2efa:	80 93 66 00 	sts	0x0066, r24	; 0x800066 <pause_len.2361>
    2efe:	10 92 b2 00 	sts	0x00B2, r1	; 0x8000b2 <has_stop_bit.2348>
    2f02:	81 e1       	ldi	r24, 0x11	; 17
    2f04:	80 93 c4 00 	sts	0x00C4, r24	; 0x8000c4 <complete_data_len.2350>
    2f08:	81 e0       	ldi	r24, 0x01	; 1
    2f0a:	80 93 c3 00 	sts	0x00C3, r24	; 0x8000c3 <n_auto_repetitions.2352>
    2f0e:	10 92 c6 00 	sts	0x00C6, r1	; 0x8000c6 <auto_repetition_pause_len.2354+0x1>
    2f12:	10 92 c5 00 	sts	0x00C5, r1	; 0x8000c5 <auto_repetition_pause_len.2354>
    2f16:	83 ea       	ldi	r24, 0xA3	; 163
    2f18:	92 e0       	ldi	r25, 0x02	; 2
    2f1a:	90 93 c0 00 	sts	0x00C0, r25	; 0x8000c0 <repeat_frame_pause_len.2357+0x1>
    2f1e:	80 93 bf 00 	sts	0x00BF, r24	; 0x8000bf <repeat_frame_pause_len.2357>
    2f22:	85 ea       	ldi	r24, 0xA5	; 165
    2f24:	56 c0       	rjmp	.+172    	; 0x2fd2 <irsnd_ISR+0xa62>
    2f26:	80 91 b1 00 	lds	r24, 0x00B1	; 0x8000b1 <repeat_counter.2356>
    2f2a:	81 11       	cpse	r24, r1
    2f2c:	10 92 6a 00 	sts	0x006A, r1	; 0x80006a <current_bit.2339>
    2f30:	87 e8       	ldi	r24, 0x87	; 135
    2f32:	80 93 b9 00 	sts	0x00B9, r24	; 0x8000b9 <startbit_pulse_len.2342>
    2f36:	83 e4       	ldi	r24, 0x43	; 67
    2f38:	90 e0       	ldi	r25, 0x00	; 0
    2f3a:	90 93 b8 00 	sts	0x00B8, r25	; 0x8000b8 <startbit_pause_len.2343+0x1>
    2f3e:	80 93 b7 00 	sts	0x00B7, r24	; 0x8000b7 <startbit_pause_len.2343>
    2f42:	80 e1       	ldi	r24, 0x10	; 16
    2f44:	80 93 c4 00 	sts	0x00C4, r24	; 0x8000c4 <complete_data_len.2350>
    2f48:	88 e0       	ldi	r24, 0x08	; 8
    2f4a:	80 93 b6 00 	sts	0x00B6, r24	; 0x8000b6 <pulse_1_len.2344>
    2f4e:	98 e1       	ldi	r25, 0x18	; 24
    2f50:	90 93 b5 00 	sts	0x00B5, r25	; 0x8000b5 <pause_1_len.2345>
    2f54:	80 93 b4 00 	sts	0x00B4, r24	; 0x8000b4 <pulse_0_len.2346>
    2f58:	87 e0       	ldi	r24, 0x07	; 7
    2f5a:	80 93 b3 00 	sts	0x00B3, r24	; 0x8000b3 <pause_0_len.2347>
    2f5e:	81 e0       	ldi	r24, 0x01	; 1
    2f60:	80 93 b2 00 	sts	0x00B2, r24	; 0x8000b2 <has_stop_bit.2348>
    2f64:	80 93 c3 00 	sts	0x00C3, r24	; 0x8000c3 <n_auto_repetitions.2352>
    2f68:	10 92 c6 00 	sts	0x00C6, r1	; 0x8000c6 <auto_repetition_pause_len.2354+0x1>
    2f6c:	10 92 c5 00 	sts	0x00C5, r1	; 0x8000c5 <auto_repetition_pause_len.2354>
    2f70:	8a e4       	ldi	r24, 0x4A	; 74
    2f72:	91 e0       	ldi	r25, 0x01	; 1
    2f74:	29 c0       	rjmp	.+82     	; 0x2fc8 <irsnd_ISR+0xa58>
    2f76:	81 e2       	ldi	r24, 0x21	; 33
    2f78:	80 93 b9 00 	sts	0x00B9, r24	; 0x8000b9 <startbit_pulse_len.2342>
    2f7c:	87 e9       	ldi	r24, 0x97	; 151
    2f7e:	91 e0       	ldi	r25, 0x01	; 1
    2f80:	90 93 b8 00 	sts	0x00B8, r25	; 0x8000b8 <startbit_pause_len.2343+0x1>
    2f84:	80 93 b7 00 	sts	0x00B7, r24	; 0x8000b7 <startbit_pause_len.2343>
    2f88:	82 e0       	ldi	r24, 0x02	; 2
    2f8a:	80 93 c4 00 	sts	0x00C4, r24	; 0x8000c4 <complete_data_len.2350>
    2f8e:	88 e0       	ldi	r24, 0x08	; 8
    2f90:	80 93 b6 00 	sts	0x00B6, r24	; 0x8000b6 <pulse_1_len.2344>
    2f94:	94 e3       	ldi	r25, 0x34	; 52
    2f96:	90 93 b5 00 	sts	0x00B5, r25	; 0x8000b5 <pause_1_len.2345>
    2f9a:	80 93 b4 00 	sts	0x00B4, r24	; 0x8000b4 <pulse_0_len.2346>
    2f9e:	86 e1       	ldi	r24, 0x16	; 22
    2fa0:	06 c0       	rjmp	.+12     	; 0x2fae <irsnd_ISR+0xa3e>
    2fa2:	80 93 b3 00 	sts	0x00B3, r24	; 0x8000b3 <pause_0_len.2347>
    2fa6:	81 e0       	ldi	r24, 0x01	; 1
    2fa8:	80 93 b2 00 	sts	0x00B2, r24	; 0x8000b2 <has_stop_bit.2348>
    2fac:	31 cd       	rjmp	.-1438   	; 0x2a10 <irsnd_ISR+0x4a0>
    2fae:	80 93 b3 00 	sts	0x00B3, r24	; 0x8000b3 <pause_0_len.2347>
    2fb2:	81 e0       	ldi	r24, 0x01	; 1
    2fb4:	80 93 b2 00 	sts	0x00B2, r24	; 0x8000b2 <has_stop_bit.2348>
    2fb8:	80 93 c3 00 	sts	0x00C3, r24	; 0x8000c3 <n_auto_repetitions.2352>
    2fbc:	10 92 c6 00 	sts	0x00C6, r1	; 0x8000c6 <auto_repetition_pause_len.2354+0x1>
    2fc0:	10 92 c5 00 	sts	0x00C5, r1	; 0x8000c5 <auto_repetition_pause_len.2354>
    2fc4:	84 e8       	ldi	r24, 0x84	; 132
    2fc6:	93 e0       	ldi	r25, 0x03	; 3
    2fc8:	90 93 c0 00 	sts	0x00C0, r25	; 0x8000c0 <repeat_frame_pause_len.2357+0x1>
    2fcc:	80 93 bf 00 	sts	0x00BF, r24	; 0x8000bf <repeat_frame_pause_len.2357>
    2fd0:	8c e9       	ldi	r24, 0x9C	; 156
    2fd2:	83 bd       	out	0x23, r24	; 35
    2fd4:	02 c0       	rjmp	.+4      	; 0x2fda <irsnd_ISR+0xa6a>
    2fd6:	10 92 e0 00 	sts	0x00E0, r1	; 0x8000e0 <irsnd_busy>
    2fda:	80 91 e0 00 	lds	r24, 0x00E0	; 0x8000e0 <irsnd_busy>
    2fde:	88 23       	and	r24, r24
    2fe0:	09 f4       	brne	.+2      	; 0x2fe4 <irsnd_ISR+0xa74>
    2fe2:	eb c2       	rjmp	.+1494   	; 0x35ba <irsnd_ISR+0x104a>
    2fe4:	10 92 69 00 	sts	0x0069, r1	; 0x800069 <new_frame.2349>
    2fe8:	80 91 de 00 	lds	r24, 0x00DE	; 0x8000de <irsnd_protocol>
    2fec:	89 31       	cpi	r24, 0x19	; 25
    2fee:	30 f5       	brcc	.+76     	; 0x303c <irsnd_ISR+0xacc>
    2ff0:	87 31       	cpi	r24, 0x17	; 23
    2ff2:	08 f0       	brcs	.+2      	; 0x2ff6 <irsnd_ISR+0xa86>
    2ff4:	a1 c1       	rjmp	.+834    	; 0x3338 <irsnd_ISR+0xdc8>
    2ff6:	8f 30       	cpi	r24, 0x0F	; 15
    2ff8:	98 f4       	brcc	.+38     	; 0x3020 <irsnd_ISR+0xab0>
    2ffa:	8c 30       	cpi	r24, 0x0C	; 12
    2ffc:	08 f0       	brcs	.+2      	; 0x3000 <irsnd_ISR+0xa90>
    2ffe:	44 c0       	rjmp	.+136    	; 0x3088 <irsnd_ISR+0xb18>
    3000:	87 30       	cpi	r24, 0x07	; 7
    3002:	09 f4       	brne	.+2      	; 0x3006 <irsnd_ISR+0xa96>
    3004:	99 c1       	rjmp	.+818    	; 0x3338 <irsnd_ISR+0xdc8>
    3006:	20 f4       	brcc	.+8      	; 0x3010 <irsnd_ISR+0xaa0>
    3008:	81 30       	cpi	r24, 0x01	; 1
    300a:	08 f4       	brcc	.+2      	; 0x300e <irsnd_ISR+0xa9e>
    300c:	d4 c2       	rjmp	.+1448   	; 0x35b6 <irsnd_ISR+0x1046>
    300e:	3c c0       	rjmp	.+120    	; 0x3088 <irsnd_ISR+0xb18>
    3010:	89 30       	cpi	r24, 0x09	; 9
    3012:	09 f4       	brne	.+2      	; 0x3016 <irsnd_ISR+0xaa6>
    3014:	91 c1       	rjmp	.+802    	; 0x3338 <irsnd_ISR+0xdc8>
    3016:	c0 f1       	brcs	.+112    	; 0x3088 <irsnd_ISR+0xb18>
    3018:	8a 30       	cpi	r24, 0x0A	; 10
    301a:	09 f0       	breq	.+2      	; 0x301e <irsnd_ISR+0xaae>
    301c:	cc c2       	rjmp	.+1432   	; 0x35b6 <irsnd_ISR+0x1046>
    301e:	34 c0       	rjmp	.+104    	; 0x3088 <irsnd_ISR+0xb18>
    3020:	84 31       	cpi	r24, 0x14	; 20
    3022:	91 f1       	breq	.+100    	; 0x3088 <irsnd_ISR+0xb18>
    3024:	20 f4       	brcc	.+8      	; 0x302e <irsnd_ISR+0xabe>
    3026:	82 31       	cpi	r24, 0x12	; 18
    3028:	08 f4       	brcc	.+2      	; 0x302c <irsnd_ISR+0xabc>
    302a:	86 c1       	rjmp	.+780    	; 0x3338 <irsnd_ISR+0xdc8>
    302c:	c4 c2       	rjmp	.+1416   	; 0x35b6 <irsnd_ISR+0x1046>
    302e:	85 31       	cpi	r24, 0x15	; 21
    3030:	09 f4       	brne	.+2      	; 0x3034 <irsnd_ISR+0xac4>
    3032:	82 c1       	rjmp	.+772    	; 0x3338 <irsnd_ISR+0xdc8>
    3034:	86 31       	cpi	r24, 0x16	; 22
    3036:	09 f0       	breq	.+2      	; 0x303a <irsnd_ISR+0xaca>
    3038:	be c2       	rjmp	.+1404   	; 0x35b6 <irsnd_ISR+0x1046>
    303a:	26 c0       	rjmp	.+76     	; 0x3088 <irsnd_ISR+0xb18>
    303c:	8a 32       	cpi	r24, 0x2A	; 42
    303e:	90 f4       	brcc	.+36     	; 0x3064 <irsnd_ISR+0xaf4>
    3040:	87 32       	cpi	r24, 0x27	; 39
    3042:	10 f5       	brcc	.+68     	; 0x3088 <irsnd_ISR+0xb18>
    3044:	80 32       	cpi	r24, 0x20	; 32
    3046:	38 f4       	brcc	.+14     	; 0x3056 <irsnd_ISR+0xae6>
    3048:	8e 31       	cpi	r24, 0x1E	; 30
    304a:	f0 f4       	brcc	.+60     	; 0x3088 <irsnd_ISR+0xb18>
    304c:	8b 51       	subi	r24, 0x1B	; 27
    304e:	82 30       	cpi	r24, 0x02	; 2
    3050:	08 f0       	brcs	.+2      	; 0x3054 <irsnd_ISR+0xae4>
    3052:	b1 c2       	rjmp	.+1378   	; 0x35b6 <irsnd_ISR+0x1046>
    3054:	19 c0       	rjmp	.+50     	; 0x3088 <irsnd_ISR+0xb18>
    3056:	80 32       	cpi	r24, 0x20	; 32
    3058:	09 f4       	brne	.+2      	; 0x305c <irsnd_ISR+0xaec>
    305a:	6e c1       	rjmp	.+732    	; 0x3338 <irsnd_ISR+0xdc8>
    305c:	82 32       	cpi	r24, 0x22	; 34
    305e:	09 f0       	breq	.+2      	; 0x3062 <irsnd_ISR+0xaf2>
    3060:	aa c2       	rjmp	.+1364   	; 0x35b6 <irsnd_ISR+0x1046>
    3062:	12 c0       	rjmp	.+36     	; 0x3088 <irsnd_ISR+0xb18>
    3064:	84 33       	cpi	r24, 0x34	; 52
    3066:	81 f0       	breq	.+32     	; 0x3088 <irsnd_ISR+0xb18>
    3068:	40 f4       	brcc	.+16     	; 0x307a <irsnd_ISR+0xb0a>
    306a:	8f 32       	cpi	r24, 0x2F	; 47
    306c:	69 f0       	breq	.+26     	; 0x3088 <irsnd_ISR+0xb18>
    306e:	81 33       	cpi	r24, 0x31	; 49
    3070:	59 f0       	breq	.+22     	; 0x3088 <irsnd_ISR+0xb18>
    3072:	8b 32       	cpi	r24, 0x2B	; 43
    3074:	09 f0       	breq	.+2      	; 0x3078 <irsnd_ISR+0xb08>
    3076:	9f c2       	rjmp	.+1342   	; 0x35b6 <irsnd_ISR+0x1046>
    3078:	07 c0       	rjmp	.+14     	; 0x3088 <irsnd_ISR+0xb18>
    307a:	8c 33       	cpi	r24, 0x3C	; 60
    307c:	29 f0       	breq	.+10     	; 0x3088 <irsnd_ISR+0xb18>
    307e:	8f 3f       	cpi	r24, 0xFF	; 255
    3080:	19 f0       	breq	.+6      	; 0x3088 <irsnd_ISR+0xb18>
    3082:	88 33       	cpi	r24, 0x38	; 56
    3084:	09 f0       	breq	.+2      	; 0x3088 <irsnd_ISR+0xb18>
    3086:	97 c2       	rjmp	.+1326   	; 0x35b6 <irsnd_ISR+0x1046>
    3088:	20 91 bc 00 	lds	r18, 0x00BC	; 0x8000bc <pulse_counter.2340>
    308c:	21 11       	cpse	r18, r1
    308e:	17 c1       	rjmp	.+558    	; 0x32be <irsnd_ISR+0xd4e>
    3090:	30 91 6a 00 	lds	r19, 0x006A	; 0x80006a <current_bit.2339>
    3094:	3f 3f       	cpi	r19, 0xFF	; 255
    3096:	49 f4       	brne	.+18     	; 0x30aa <irsnd_ISR+0xb3a>
    3098:	80 91 b9 00 	lds	r24, 0x00B9	; 0x8000b9 <startbit_pulse_len.2342>
    309c:	80 93 68 00 	sts	0x0068, r24	; 0x800068 <pulse_len.2360>
    30a0:	80 91 b7 00 	lds	r24, 0x00B7	; 0x8000b7 <startbit_pause_len.2343>
    30a4:	90 91 b8 00 	lds	r25, 0x00B8	; 0x8000b8 <startbit_pause_len.2343+0x1>
    30a8:	06 c1       	rjmp	.+524    	; 0x32b6 <irsnd_ISR+0xd46>
    30aa:	80 91 c4 00 	lds	r24, 0x00C4	; 0x8000c4 <complete_data_len.2350>
    30ae:	38 17       	cp	r19, r24
    30b0:	08 f0       	brcs	.+2      	; 0x30b4 <irsnd_ISR+0xb44>
    30b2:	ed c0       	rjmp	.+474    	; 0x328e <irsnd_ISR+0xd1e>
    30b4:	80 91 de 00 	lds	r24, 0x00DE	; 0x8000de <irsnd_protocol>
    30b8:	83 30       	cpi	r24, 0x03	; 3
    30ba:	09 f0       	breq	.+2      	; 0x30be <irsnd_ISR+0xb4e>
    30bc:	46 c0       	rjmp	.+140    	; 0x314a <irsnd_ISR+0xbda>
    30be:	30 31       	cpi	r19, 0x10	; 16
    30c0:	d0 f4       	brcc	.+52     	; 0x30f6 <irsnd_ISR+0xb86>
    30c2:	88 e0       	ldi	r24, 0x08	; 8
    30c4:	80 93 68 00 	sts	0x0068, r24	; 0x800068 <pulse_len.2360>
    30c8:	e3 2f       	mov	r30, r19
    30ca:	e6 95       	lsr	r30
    30cc:	e6 95       	lsr	r30
    30ce:	e6 95       	lsr	r30
    30d0:	f0 e0       	ldi	r31, 0x00	; 0
    30d2:	ed 52       	subi	r30, 0x2D	; 45
    30d4:	ff 4f       	sbci	r31, 0xFF	; 255
    30d6:	60 81       	ld	r22, Z
    30d8:	70 e0       	ldi	r23, 0x00	; 0
    30da:	83 2f       	mov	r24, r19
    30dc:	90 e0       	ldi	r25, 0x00	; 0
    30de:	80 95       	com	r24
    30e0:	90 95       	com	r25
    30e2:	87 70       	andi	r24, 0x07	; 7
    30e4:	99 27       	eor	r25, r25
    30e6:	ab 01       	movw	r20, r22
    30e8:	02 c0       	rjmp	.+4      	; 0x30ee <irsnd_ISR+0xb7e>
    30ea:	55 95       	asr	r21
    30ec:	47 95       	ror	r20
    30ee:	8a 95       	dec	r24
    30f0:	e2 f7       	brpl	.-8      	; 0x30ea <irsnd_ISR+0xb7a>
    30f2:	ca 01       	movw	r24, r20
    30f4:	25 c0       	rjmp	.+74     	; 0x3140 <irsnd_ISR+0xbd0>
    30f6:	30 31       	cpi	r19, 0x10	; 16
    30f8:	31 f4       	brne	.+12     	; 0x3106 <irsnd_ISR+0xb96>
    30fa:	88 e0       	ldi	r24, 0x08	; 8
    30fc:	80 93 68 00 	sts	0x0068, r24	; 0x800068 <pulse_len.2360>
    3100:	83 e4       	ldi	r24, 0x43	; 67
    3102:	90 e0       	ldi	r25, 0x00	; 0
    3104:	d8 c0       	rjmp	.+432    	; 0x32b6 <irsnd_ISR+0xd46>
    3106:	35 32       	cpi	r19, 0x25	; 37
    3108:	08 f0       	brcs	.+2      	; 0x310c <irsnd_ISR+0xb9c>
    310a:	d9 c0       	rjmp	.+434    	; 0x32be <irsnd_ISR+0xd4e>
    310c:	8f ef       	ldi	r24, 0xFF	; 255
    310e:	83 0f       	add	r24, r19
    3110:	98 e0       	ldi	r25, 0x08	; 8
    3112:	90 93 68 00 	sts	0x0068, r25	; 0x800068 <pulse_len.2360>
    3116:	e8 2f       	mov	r30, r24
    3118:	e6 95       	lsr	r30
    311a:	e6 95       	lsr	r30
    311c:	e6 95       	lsr	r30
    311e:	f0 e0       	ldi	r31, 0x00	; 0
    3120:	ed 52       	subi	r30, 0x2D	; 45
    3122:	ff 4f       	sbci	r31, 0xFF	; 255
    3124:	40 81       	ld	r20, Z
    3126:	50 e0       	ldi	r21, 0x00	; 0
    3128:	90 e0       	ldi	r25, 0x00	; 0
    312a:	80 95       	com	r24
    312c:	90 95       	com	r25
    312e:	87 70       	andi	r24, 0x07	; 7
    3130:	99 27       	eor	r25, r25
    3132:	ba 01       	movw	r22, r20
    3134:	02 c0       	rjmp	.+4      	; 0x313a <irsnd_ISR+0xbca>
    3136:	75 95       	asr	r23
    3138:	67 95       	ror	r22
    313a:	8a 95       	dec	r24
    313c:	e2 f7       	brpl	.-8      	; 0x3136 <irsnd_ISR+0xbc6>
    313e:	cb 01       	movw	r24, r22
    3140:	80 ff       	sbrs	r24, 0
    3142:	2b c0       	rjmp	.+86     	; 0x319a <irsnd_ISR+0xc2a>
    3144:	86 e1       	ldi	r24, 0x16	; 22
    3146:	90 e0       	ldi	r25, 0x00	; 0
    3148:	b6 c0       	rjmp	.+364    	; 0x32b6 <irsnd_ISR+0xd46>
    314a:	80 91 de 00 	lds	r24, 0x00DE	; 0x8000de <irsnd_protocol>
    314e:	8b 31       	cpi	r24, 0x1B	; 27
    3150:	51 f5       	brne	.+84     	; 0x31a6 <irsnd_ISR+0xc36>
    3152:	38 30       	cpi	r19, 0x08	; 8
    3154:	40 f4       	brcc	.+16     	; 0x3166 <irsnd_ISR+0xbf6>
    3156:	88 e0       	ldi	r24, 0x08	; 8
    3158:	80 93 68 00 	sts	0x0068, r24	; 0x800068 <pulse_len.2360>
    315c:	60 91 d3 00 	lds	r22, 0x00D3	; 0x8000d3 <irsnd_buffer>
    3160:	70 e0       	ldi	r23, 0x00	; 0
    3162:	83 2f       	mov	r24, r19
    3164:	0d c0       	rjmp	.+26     	; 0x3180 <irsnd_ISR+0xc10>
    3166:	38 30       	cpi	r19, 0x08	; 8
    3168:	41 f2       	breq	.-112    	; 0x30fa <irsnd_ISR+0xb8a>
    316a:	31 31       	cpi	r19, 0x11	; 17
    316c:	08 f0       	brcs	.+2      	; 0x3170 <irsnd_ISR+0xc00>
    316e:	a7 c0       	rjmp	.+334    	; 0x32be <irsnd_ISR+0xd4e>
    3170:	88 e0       	ldi	r24, 0x08	; 8
    3172:	80 93 68 00 	sts	0x0068, r24	; 0x800068 <pulse_len.2360>
    3176:	60 91 d4 00 	lds	r22, 0x00D4	; 0x8000d4 <irsnd_buffer+0x1>
    317a:	70 e0       	ldi	r23, 0x00	; 0
    317c:	8f ef       	ldi	r24, 0xFF	; 255
    317e:	83 0f       	add	r24, r19
    3180:	90 e0       	ldi	r25, 0x00	; 0
    3182:	80 95       	com	r24
    3184:	90 95       	com	r25
    3186:	87 70       	andi	r24, 0x07	; 7
    3188:	99 27       	eor	r25, r25
    318a:	ab 01       	movw	r20, r22
    318c:	02 c0       	rjmp	.+4      	; 0x3192 <irsnd_ISR+0xc22>
    318e:	55 95       	asr	r21
    3190:	47 95       	ror	r20
    3192:	8a 95       	dec	r24
    3194:	e2 f7       	brpl	.-8      	; 0x318e <irsnd_ISR+0xc1e>
    3196:	40 fd       	sbrc	r20, 0
    3198:	03 c0       	rjmp	.+6      	; 0x31a0 <irsnd_ISR+0xc30>
    319a:	87 e0       	ldi	r24, 0x07	; 7
    319c:	90 e0       	ldi	r25, 0x00	; 0
    319e:	8b c0       	rjmp	.+278    	; 0x32b6 <irsnd_ISR+0xd46>
    31a0:	88 e1       	ldi	r24, 0x18	; 24
    31a2:	90 e0       	ldi	r25, 0x00	; 0
    31a4:	88 c0       	rjmp	.+272    	; 0x32b6 <irsnd_ISR+0xd46>
    31a6:	80 91 de 00 	lds	r24, 0x00DE	; 0x8000de <irsnd_protocol>
    31aa:	8e 30       	cpi	r24, 0x0E	; 14
    31ac:	09 f0       	breq	.+2      	; 0x31b0 <irsnd_ISR+0xc40>
    31ae:	4c c0       	rjmp	.+152    	; 0x3248 <irsnd_ISR+0xcd8>
    31b0:	31 11       	cpse	r19, r1
    31b2:	06 c0       	rjmp	.+12     	; 0x31c0 <irsnd_ISR+0xc50>
    31b4:	83 e0       	ldi	r24, 0x03	; 3
    31b6:	80 93 68 00 	sts	0x0068, r24	; 0x800068 <pulse_len.2360>
    31ba:	8e e2       	ldi	r24, 0x2E	; 46
    31bc:	90 e0       	ldi	r25, 0x00	; 0
    31be:	7b c0       	rjmp	.+246    	; 0x32b6 <irsnd_ISR+0xd46>
    31c0:	31 30       	cpi	r19, 0x01	; 1
    31c2:	31 f4       	brne	.+12     	; 0x31d0 <irsnd_ISR+0xc60>
    31c4:	83 e0       	ldi	r24, 0x03	; 3
    31c6:	80 93 68 00 	sts	0x0068, r24	; 0x800068 <pulse_len.2360>
    31ca:	89 ee       	ldi	r24, 0xE9	; 233
    31cc:	90 e0       	ldi	r25, 0x00	; 0
    31ce:	73 c0       	rjmp	.+230    	; 0x32b6 <irsnd_ISR+0xd46>
    31d0:	32 30       	cpi	r19, 0x02	; 2
    31d2:	81 f3       	breq	.-32     	; 0x31b4 <irsnd_ISR+0xc44>
    31d4:	33 31       	cpi	r19, 0x13	; 19
    31d6:	31 f4       	brne	.+12     	; 0x31e4 <irsnd_ISR+0xc74>
    31d8:	83 e0       	ldi	r24, 0x03	; 3
    31da:	80 93 68 00 	sts	0x0068, r24	; 0x800068 <pulse_len.2360>
    31de:	8b eb       	ldi	r24, 0xBB	; 187
    31e0:	90 e0       	ldi	r25, 0x00	; 0
    31e2:	69 c0       	rjmp	.+210    	; 0x32b6 <irsnd_ISR+0xd46>
    31e4:	34 31       	cpi	r19, 0x14	; 20
    31e6:	08 f0       	brcs	.+2      	; 0x31ea <irsnd_ISR+0xc7a>
    31e8:	6a c0       	rjmp	.+212    	; 0x32be <irsnd_ISR+0xd4e>
    31ea:	e3 2f       	mov	r30, r19
    31ec:	e6 95       	lsr	r30
    31ee:	e6 95       	lsr	r30
    31f0:	e6 95       	lsr	r30
    31f2:	f0 e0       	ldi	r31, 0x00	; 0
    31f4:	ed 52       	subi	r30, 0x2D	; 45
    31f6:	ff 4f       	sbci	r31, 0xFF	; 255
    31f8:	90 81       	ld	r25, Z
    31fa:	89 2f       	mov	r24, r25
    31fc:	90 e0       	ldi	r25, 0x00	; 0
    31fe:	43 2f       	mov	r20, r19
    3200:	50 e0       	ldi	r21, 0x00	; 0
    3202:	40 95       	com	r20
    3204:	50 95       	com	r21
    3206:	47 70       	andi	r20, 0x07	; 7
    3208:	55 27       	eor	r21, r21
    320a:	02 c0       	rjmp	.+4      	; 0x3210 <irsnd_ISR+0xca0>
    320c:	95 95       	asr	r25
    320e:	87 95       	ror	r24
    3210:	4a 95       	dec	r20
    3212:	e2 f7       	brpl	.-8      	; 0x320c <irsnd_ISR+0xc9c>
    3214:	81 70       	andi	r24, 0x01	; 1
    3216:	99 27       	eor	r25, r25
    3218:	33 e0       	ldi	r19, 0x03	; 3
    321a:	30 93 68 00 	sts	0x0068, r19	; 0x800068 <pulse_len.2360>
    321e:	30 91 b0 00 	lds	r19, 0x00B0	; 0x8000b0 <last_bit_value.2359>
    3222:	38 13       	cpse	r19, r24
    3224:	03 c0       	rjmp	.+6      	; 0x322c <irsnd_ISR+0xcbc>
    3226:	8d e5       	ldi	r24, 0x5D	; 93
    3228:	90 e0       	ldi	r25, 0x00	; 0
    322a:	45 c0       	rjmp	.+138    	; 0x32b6 <irsnd_ISR+0xd46>
    322c:	00 97       	sbiw	r24, 0x00	; 0
    322e:	19 f4       	brne	.+6      	; 0x3236 <irsnd_ISR+0xcc6>
    3230:	4e e2       	ldi	r20, 0x2E	; 46
    3232:	50 e0       	ldi	r21, 0x00	; 0
    3234:	02 c0       	rjmp	.+4      	; 0x323a <irsnd_ISR+0xcca>
    3236:	4c e8       	ldi	r20, 0x8C	; 140
    3238:	50 e0       	ldi	r21, 0x00	; 0
    323a:	50 93 67 00 	sts	0x0067, r21	; 0x800067 <pause_len.2361+0x1>
    323e:	40 93 66 00 	sts	0x0066, r20	; 0x800066 <pause_len.2361>
    3242:	80 93 b0 00 	sts	0x00B0, r24	; 0x8000b0 <last_bit_value.2359>
    3246:	3b c0       	rjmp	.+118    	; 0x32be <irsnd_ISR+0xd4e>
    3248:	e3 2f       	mov	r30, r19
    324a:	e6 95       	lsr	r30
    324c:	e6 95       	lsr	r30
    324e:	e6 95       	lsr	r30
    3250:	f0 e0       	ldi	r31, 0x00	; 0
    3252:	ed 52       	subi	r30, 0x2D	; 45
    3254:	ff 4f       	sbci	r31, 0xFF	; 255
    3256:	40 81       	ld	r20, Z
    3258:	50 e0       	ldi	r21, 0x00	; 0
    325a:	83 2f       	mov	r24, r19
    325c:	90 e0       	ldi	r25, 0x00	; 0
    325e:	80 95       	com	r24
    3260:	90 95       	com	r25
    3262:	87 70       	andi	r24, 0x07	; 7
    3264:	99 27       	eor	r25, r25
    3266:	ba 01       	movw	r22, r20
    3268:	02 c0       	rjmp	.+4      	; 0x326e <irsnd_ISR+0xcfe>
    326a:	75 95       	asr	r23
    326c:	67 95       	ror	r22
    326e:	8a 95       	dec	r24
    3270:	e2 f7       	brpl	.-8      	; 0x326a <irsnd_ISR+0xcfa>
    3272:	60 ff       	sbrs	r22, 0
    3274:	07 c0       	rjmp	.+14     	; 0x3284 <irsnd_ISR+0xd14>
    3276:	80 91 b6 00 	lds	r24, 0x00B6	; 0x8000b6 <pulse_1_len.2344>
    327a:	80 93 68 00 	sts	0x0068, r24	; 0x800068 <pulse_len.2360>
    327e:	80 91 b5 00 	lds	r24, 0x00B5	; 0x8000b5 <pause_1_len.2345>
    3282:	15 c0       	rjmp	.+42     	; 0x32ae <irsnd_ISR+0xd3e>
    3284:	80 91 b4 00 	lds	r24, 0x00B4	; 0x8000b4 <pulse_0_len.2346>
    3288:	80 93 68 00 	sts	0x0068, r24	; 0x800068 <pulse_len.2360>
    328c:	0e c0       	rjmp	.+28     	; 0x32aa <irsnd_ISR+0xd3a>
    328e:	80 91 b2 00 	lds	r24, 0x00B2	; 0x8000b2 <has_stop_bit.2348>
    3292:	88 23       	and	r24, r24
    3294:	a1 f0       	breq	.+40     	; 0x32be <irsnd_ISR+0xd4e>
    3296:	80 91 b4 00 	lds	r24, 0x00B4	; 0x8000b4 <pulse_0_len.2346>
    329a:	80 93 68 00 	sts	0x0068, r24	; 0x800068 <pulse_len.2360>
    329e:	90 91 c9 00 	lds	r25, 0x00C9	; 0x8000c9 <auto_repetition_counter.2353>
    32a2:	80 91 c3 00 	lds	r24, 0x00C3	; 0x8000c3 <n_auto_repetitions.2352>
    32a6:	98 17       	cp	r25, r24
    32a8:	20 f4       	brcc	.+8      	; 0x32b2 <irsnd_ISR+0xd42>
    32aa:	80 91 b3 00 	lds	r24, 0x00B3	; 0x8000b3 <pause_0_len.2347>
    32ae:	90 e0       	ldi	r25, 0x00	; 0
    32b0:	02 c0       	rjmp	.+4      	; 0x32b6 <irsnd_ISR+0xd46>
    32b2:	8f ef       	ldi	r24, 0xFF	; 255
    32b4:	90 e0       	ldi	r25, 0x00	; 0
    32b6:	90 93 67 00 	sts	0x0067, r25	; 0x800067 <pause_len.2361+0x1>
    32ba:	80 93 66 00 	sts	0x0066, r24	; 0x800066 <pause_len.2361>
    32be:	80 91 68 00 	lds	r24, 0x0068	; 0x800068 <pulse_len.2360>
    32c2:	28 17       	cp	r18, r24
    32c4:	18 f4       	brcc	.+6      	; 0x32cc <irsnd_ISR+0xd5c>
    32c6:	21 11       	cpse	r18, r1
    32c8:	70 c1       	rjmp	.+736    	; 0x35aa <irsnd_ISR+0x103a>
    32ca:	6d c1       	rjmp	.+730    	; 0x35a6 <irsnd_ISR+0x1036>
    32cc:	80 91 ba 00 	lds	r24, 0x00BA	; 0x8000ba <pause_counter.2341>
    32d0:	90 91 bb 00 	lds	r25, 0x00BB	; 0x8000bb <pause_counter.2341+0x1>
    32d4:	20 91 66 00 	lds	r18, 0x0066	; 0x800066 <pause_len.2361>
    32d8:	30 91 67 00 	lds	r19, 0x0067	; 0x800067 <pause_len.2361+0x1>
    32dc:	82 17       	cp	r24, r18
    32de:	93 07       	cpc	r25, r19
    32e0:	08 f4       	brcc	.+2      	; 0x32e4 <irsnd_ISR+0xd74>
    32e2:	4f c1       	rjmp	.+670    	; 0x3582 <irsnd_ISR+0x1012>
    32e4:	80 91 6a 00 	lds	r24, 0x006A	; 0x80006a <current_bit.2339>
    32e8:	8f 5f       	subi	r24, 0xFF	; 255
    32ea:	80 93 6a 00 	sts	0x006A, r24	; 0x80006a <current_bit.2339>
    32ee:	90 e0       	ldi	r25, 0x00	; 0
    32f0:	40 91 c4 00 	lds	r20, 0x00C4	; 0x8000c4 <complete_data_len.2350>
    32f4:	20 91 b2 00 	lds	r18, 0x00B2	; 0x8000b2 <has_stop_bit.2348>
    32f8:	30 e0       	ldi	r19, 0x00	; 0
    32fa:	24 0f       	add	r18, r20
    32fc:	31 1d       	adc	r19, r1
    32fe:	82 17       	cp	r24, r18
    3300:	93 07       	cpc	r25, r19
    3302:	9c f0       	brlt	.+38     	; 0x332a <irsnd_ISR+0xdba>
    3304:	8f ef       	ldi	r24, 0xFF	; 255
    3306:	80 93 6a 00 	sts	0x006A, r24	; 0x80006a <current_bit.2339>
    330a:	80 91 c9 00 	lds	r24, 0x00C9	; 0x8000c9 <auto_repetition_counter.2353>
    330e:	8f 5f       	subi	r24, 0xFF	; 255
    3310:	80 93 c9 00 	sts	0x00C9, r24	; 0x8000c9 <auto_repetition_counter.2353>
    3314:	90 91 c3 00 	lds	r25, 0x00C3	; 0x8000c3 <n_auto_repetitions.2352>
    3318:	89 13       	cpse	r24, r25
    331a:	04 c0       	rjmp	.+8      	; 0x3324 <irsnd_ISR+0xdb4>
    331c:	10 92 e0 00 	sts	0x00E0, r1	; 0x8000e0 <irsnd_busy>
    3320:	10 92 c9 00 	sts	0x00C9, r1	; 0x8000c9 <auto_repetition_counter.2353>
    3324:	81 e0       	ldi	r24, 0x01	; 1
    3326:	80 93 69 00 	sts	0x0069, r24	; 0x800069 <new_frame.2349>
    332a:	10 92 bc 00 	sts	0x00BC, r1	; 0x8000bc <pulse_counter.2340>
    332e:	10 92 bb 00 	sts	0x00BB, r1	; 0x8000bb <pause_counter.2341+0x1>
    3332:	10 92 ba 00 	sts	0x00BA, r1	; 0x8000ba <pause_counter.2341>
    3336:	41 c1       	rjmp	.+642    	; 0x35ba <irsnd_ISR+0x104a>
    3338:	90 91 bc 00 	lds	r25, 0x00BC	; 0x8000bc <pulse_counter.2340>
    333c:	80 91 68 00 	lds	r24, 0x0068	; 0x800068 <pulse_len.2360>
    3340:	98 13       	cpse	r25, r24
    3342:	54 c0       	rjmp	.+168    	; 0x33ec <irsnd_ISR+0xe7c>
    3344:	20 91 ba 00 	lds	r18, 0x00BA	; 0x8000ba <pause_counter.2341>
    3348:	30 91 bb 00 	lds	r19, 0x00BB	; 0x8000bb <pause_counter.2341+0x1>
    334c:	80 91 66 00 	lds	r24, 0x0066	; 0x800066 <pause_len.2361>
    3350:	90 91 67 00 	lds	r25, 0x0067	; 0x800067 <pause_len.2361+0x1>
    3354:	28 17       	cp	r18, r24
    3356:	39 07       	cpc	r19, r25
    3358:	09 f0       	breq	.+2      	; 0x335c <irsnd_ISR+0xdec>
    335a:	48 c0       	rjmp	.+144    	; 0x33ec <irsnd_ISR+0xe7c>
    335c:	80 91 6a 00 	lds	r24, 0x006A	; 0x80006a <current_bit.2339>
    3360:	8f 5f       	subi	r24, 0xFF	; 255
    3362:	80 93 6a 00 	sts	0x006A, r24	; 0x80006a <current_bit.2339>
    3366:	90 91 c4 00 	lds	r25, 0x00C4	; 0x8000c4 <complete_data_len.2350>
    336a:	89 17       	cp	r24, r25
    336c:	c8 f1       	brcs	.+114    	; 0x33e0 <irsnd_ISR+0xe70>
    336e:	8f ef       	ldi	r24, 0xFF	; 255
    3370:	80 93 6a 00 	sts	0x006A, r24	; 0x80006a <current_bit.2339>
    3374:	80 91 de 00 	lds	r24, 0x00DE	; 0x8000de <irsnd_protocol>
    3378:	8f 30       	cpi	r24, 0x0F	; 15
    337a:	41 f0       	breq	.+16     	; 0x338c <irsnd_ISR+0xe1c>
    337c:	80 91 de 00 	lds	r24, 0x00DE	; 0x8000de <irsnd_protocol>
    3380:	88 31       	cpi	r24, 0x18	; 24
    3382:	21 f0       	breq	.+8      	; 0x338c <irsnd_ISR+0xe1c>
    3384:	80 91 de 00 	lds	r24, 0x00DE	; 0x8000de <irsnd_protocol>
    3388:	80 31       	cpi	r24, 0x10	; 16
    338a:	19 f5       	brne	.+70     	; 0x33d2 <irsnd_ISR+0xe62>
    338c:	20 91 c9 00 	lds	r18, 0x00C9	; 0x8000c9 <auto_repetition_counter.2353>
    3390:	2f 5f       	subi	r18, 0xFF	; 255
    3392:	20 93 c9 00 	sts	0x00C9, r18	; 0x8000c9 <auto_repetition_counter.2353>
    3396:	80 91 b1 00 	lds	r24, 0x00B1	; 0x8000b1 <repeat_counter.2356>
    339a:	88 23       	and	r24, r24
    339c:	31 f0       	breq	.+12     	; 0x33aa <irsnd_ISR+0xe3a>
    339e:	46 ee       	ldi	r20, 0xE6	; 230
    33a0:	56 e0       	ldi	r21, 0x06	; 6
    33a2:	50 93 c6 00 	sts	0x00C6, r21	; 0x8000c6 <auto_repetition_pause_len.2354+0x1>
    33a6:	40 93 c5 00 	sts	0x00C5, r20	; 0x8000c5 <auto_repetition_pause_len.2354>
    33aa:	30 91 bd 00 	lds	r19, 0x00BD	; 0x8000bd <n_repeat_frames.2351>
    33ae:	90 91 c3 00 	lds	r25, 0x00C3	; 0x8000c3 <n_auto_repetitions.2352>
    33b2:	83 17       	cp	r24, r19
    33b4:	38 f4       	brcc	.+14     	; 0x33c4 <irsnd_ISR+0xe54>
    33b6:	9f 5f       	subi	r25, 0xFF	; 255
    33b8:	90 93 c3 00 	sts	0x00C3, r25	; 0x8000c3 <n_auto_repetitions.2352>
    33bc:	8f 5f       	subi	r24, 0xFF	; 255
    33be:	80 93 b1 00 	sts	0x00B1, r24	; 0x8000b1 <repeat_counter.2356>
    33c2:	09 c0       	rjmp	.+18     	; 0x33d6 <irsnd_ISR+0xe66>
    33c4:	29 13       	cpse	r18, r25
    33c6:	07 c0       	rjmp	.+14     	; 0x33d6 <irsnd_ISR+0xe66>
    33c8:	10 92 e0 00 	sts	0x00E0, r1	; 0x8000e0 <irsnd_busy>
    33cc:	10 92 c9 00 	sts	0x00C9, r1	; 0x8000c9 <auto_repetition_counter.2353>
    33d0:	02 c0       	rjmp	.+4      	; 0x33d6 <irsnd_ISR+0xe66>
    33d2:	10 92 e0 00 	sts	0x00E0, r1	; 0x8000e0 <irsnd_busy>
    33d6:	81 e0       	ldi	r24, 0x01	; 1
    33d8:	80 93 69 00 	sts	0x0069, r24	; 0x800069 <new_frame.2349>
    33dc:	0e 94 6a 0e 	call	0x1cd4	; 0x1cd4 <irsnd_off>
    33e0:	10 92 bc 00 	sts	0x00BC, r1	; 0x8000bc <pulse_counter.2340>
    33e4:	10 92 bb 00 	sts	0x00BB, r1	; 0x8000bb <pause_counter.2341+0x1>
    33e8:	10 92 ba 00 	sts	0x00BA, r1	; 0x8000ba <pause_counter.2341>
    33ec:	80 91 69 00 	lds	r24, 0x0069	; 0x800069 <new_frame.2349>
    33f0:	81 11       	cpse	r24, r1
    33f2:	e3 c0       	rjmp	.+454    	; 0x35ba <irsnd_ISR+0x104a>
    33f4:	80 91 de 00 	lds	r24, 0x00DE	; 0x8000de <irsnd_protocol>
    33f8:	20 91 6a 00 	lds	r18, 0x006A	; 0x80006a <current_bit.2339>
    33fc:	8f 30       	cpi	r24, 0x0F	; 15
    33fe:	49 f0       	breq	.+18     	; 0x3412 <irsnd_ISR+0xea2>
    3400:	80 91 de 00 	lds	r24, 0x00DE	; 0x8000de <irsnd_protocol>
    3404:	88 31       	cpi	r24, 0x18	; 24
    3406:	29 f0       	breq	.+10     	; 0x3412 <irsnd_ISR+0xea2>
    3408:	80 91 de 00 	lds	r24, 0x00DE	; 0x8000de <irsnd_protocol>
    340c:	80 31       	cpi	r24, 0x10	; 16
    340e:	09 f0       	breq	.+2      	; 0x3412 <irsnd_ISR+0xea2>
    3410:	41 c0       	rjmp	.+130    	; 0x3494 <irsnd_ISR+0xf24>
    3412:	2f 3f       	cpi	r18, 0xFF	; 255
    3414:	a1 f0       	breq	.+40     	; 0x343e <irsnd_ISR+0xece>
    3416:	80 91 de 00 	lds	r24, 0x00DE	; 0x8000de <irsnd_protocol>
    341a:	8f 30       	cpi	r24, 0x0F	; 15
    341c:	11 f4       	brne	.+4      	; 0x3422 <irsnd_ISR+0xeb2>
    341e:	2f 30       	cpi	r18, 0x0F	; 15
    3420:	71 f0       	breq	.+28     	; 0x343e <irsnd_ISR+0xece>
    3422:	80 91 de 00 	lds	r24, 0x00DE	; 0x8000de <irsnd_protocol>
    3426:	88 31       	cpi	r24, 0x18	; 24
    3428:	11 f4       	brne	.+4      	; 0x342e <irsnd_ISR+0xebe>
    342a:	27 30       	cpi	r18, 0x07	; 7
    342c:	41 f0       	breq	.+16     	; 0x343e <irsnd_ISR+0xece>
    342e:	80 91 de 00 	lds	r24, 0x00DE	; 0x8000de <irsnd_protocol>
    3432:	80 31       	cpi	r24, 0x10	; 16
    3434:	89 f4       	brne	.+34     	; 0x3458 <irsnd_ISR+0xee8>
    3436:	27 31       	cpi	r18, 0x17	; 23
    3438:	11 f0       	breq	.+4      	; 0x343e <irsnd_ISR+0xece>
    343a:	2f 32       	cpi	r18, 0x2F	; 47
    343c:	69 f4       	brne	.+26     	; 0x3458 <irsnd_ISR+0xee8>
    343e:	80 91 b9 00 	lds	r24, 0x00B9	; 0x8000b9 <startbit_pulse_len.2342>
    3442:	80 93 68 00 	sts	0x0068, r24	; 0x800068 <pulse_len.2360>
    3446:	80 91 b7 00 	lds	r24, 0x00B7	; 0x8000b7 <startbit_pause_len.2343>
    344a:	90 91 b8 00 	lds	r25, 0x00B8	; 0x8000b8 <startbit_pause_len.2343+0x1>
    344e:	90 93 67 00 	sts	0x0067, r25	; 0x800067 <pause_len.2361+0x1>
    3452:	80 93 66 00 	sts	0x0066, r24	; 0x800066 <pause_len.2361>
    3456:	7f c0       	rjmp	.+254    	; 0x3556 <irsnd_ISR+0xfe6>
    3458:	88 e0       	ldi	r24, 0x08	; 8
    345a:	80 93 68 00 	sts	0x0068, r24	; 0x800068 <pulse_len.2360>
    345e:	88 e0       	ldi	r24, 0x08	; 8
    3460:	90 e0       	ldi	r25, 0x00	; 0
    3462:	90 93 67 00 	sts	0x0067, r25	; 0x800067 <pause_len.2361+0x1>
    3466:	80 93 66 00 	sts	0x0066, r24	; 0x800066 <pause_len.2361>
    346a:	e2 2f       	mov	r30, r18
    346c:	e6 95       	lsr	r30
    346e:	e6 95       	lsr	r30
    3470:	e6 95       	lsr	r30
    3472:	f0 e0       	ldi	r31, 0x00	; 0
    3474:	ed 52       	subi	r30, 0x2D	; 45
    3476:	ff 4f       	sbci	r31, 0xFF	; 255
    3478:	80 81       	ld	r24, Z
    347a:	90 e0       	ldi	r25, 0x00	; 0
    347c:	30 e0       	ldi	r19, 0x00	; 0
    347e:	20 95       	com	r18
    3480:	30 95       	com	r19
    3482:	27 70       	andi	r18, 0x07	; 7
    3484:	33 27       	eor	r19, r19
    3486:	02 c0       	rjmp	.+4      	; 0x348c <irsnd_ISR+0xf1c>
    3488:	95 95       	asr	r25
    348a:	87 95       	ror	r24
    348c:	2a 95       	dec	r18
    348e:	e2 f7       	brpl	.-8      	; 0x3488 <irsnd_ISR+0xf18>
    3490:	81 70       	andi	r24, 0x01	; 1
    3492:	5f c0       	rjmp	.+190    	; 0x3552 <irsnd_ISR+0xfe2>
    3494:	80 91 de 00 	lds	r24, 0x00DE	; 0x8000de <irsnd_protocol>
    3498:	2f 3f       	cpi	r18, 0xFF	; 255
    349a:	d1 f4       	brne	.+52     	; 0x34d0 <irsnd_ISR+0xf60>
    349c:	89 30       	cpi	r24, 0x09	; 9
    349e:	21 f0       	breq	.+8      	; 0x34a8 <irsnd_ISR+0xf38>
    34a0:	80 91 de 00 	lds	r24, 0x00DE	; 0x8000de <irsnd_protocol>
    34a4:	85 31       	cpi	r24, 0x15	; 21
    34a6:	69 f4       	brne	.+26     	; 0x34c2 <irsnd_ISR+0xf52>
    34a8:	80 91 b9 00 	lds	r24, 0x00B9	; 0x8000b9 <startbit_pulse_len.2342>
    34ac:	80 93 68 00 	sts	0x0068, r24	; 0x800068 <pulse_len.2360>
    34b0:	80 91 b7 00 	lds	r24, 0x00B7	; 0x8000b7 <startbit_pause_len.2343>
    34b4:	90 91 b8 00 	lds	r25, 0x00B8	; 0x8000b8 <startbit_pause_len.2343+0x1>
    34b8:	90 93 67 00 	sts	0x0067, r25	; 0x800067 <pause_len.2361+0x1>
    34bc:	80 93 66 00 	sts	0x0066, r24	; 0x800066 <pause_len.2361>
    34c0:	41 c0       	rjmp	.+130    	; 0x3544 <irsnd_ISR+0xfd4>
    34c2:	80 91 de 00 	lds	r24, 0x00DE	; 0x8000de <irsnd_protocol>
    34c6:	80 32       	cpi	r24, 0x20	; 32
    34c8:	e9 f5       	brne	.+122    	; 0x3544 <irsnd_ISR+0xfd4>
    34ca:	10 92 6a 00 	sts	0x006A, r1	; 0x80006a <current_bit.2339>
    34ce:	3a c0       	rjmp	.+116    	; 0x3544 <irsnd_ISR+0xfd4>
    34d0:	89 30       	cpi	r24, 0x09	; 9
    34d2:	21 f0       	breq	.+8      	; 0x34dc <irsnd_ISR+0xf6c>
    34d4:	80 91 de 00 	lds	r24, 0x00DE	; 0x8000de <irsnd_protocol>
    34d8:	85 31       	cpi	r24, 0x15	; 21
    34da:	f9 f4       	brne	.+62     	; 0x351a <irsnd_ISR+0xfaa>
    34dc:	87 e0       	ldi	r24, 0x07	; 7
    34de:	80 93 68 00 	sts	0x0068, r24	; 0x800068 <pulse_len.2360>
    34e2:	87 e0       	ldi	r24, 0x07	; 7
    34e4:	90 e0       	ldi	r25, 0x00	; 0
    34e6:	90 93 67 00 	sts	0x0067, r25	; 0x800067 <pause_len.2361+0x1>
    34ea:	80 93 66 00 	sts	0x0066, r24	; 0x800066 <pause_len.2361>
    34ee:	80 91 de 00 	lds	r24, 0x00DE	; 0x8000de <irsnd_protocol>
    34f2:	89 30       	cpi	r24, 0x09	; 9
    34f4:	21 f4       	brne	.+8      	; 0x34fe <irsnd_ISR+0xf8e>
    34f6:	24 30       	cpi	r18, 0x04	; 4
    34f8:	81 f4       	brne	.+32     	; 0x351a <irsnd_ISR+0xfaa>
    34fa:	8d e0       	ldi	r24, 0x0D	; 13
    34fc:	03 c0       	rjmp	.+6      	; 0x3504 <irsnd_ISR+0xf94>
    34fe:	24 30       	cpi	r18, 0x04	; 4
    3500:	21 f4       	brne	.+8      	; 0x350a <irsnd_ISR+0xf9a>
    3502:	84 e1       	ldi	r24, 0x14	; 20
    3504:	80 93 68 00 	sts	0x0068, r24	; 0x800068 <pulse_len.2360>
    3508:	02 c0       	rjmp	.+4      	; 0x350e <irsnd_ISR+0xf9e>
    350a:	25 30       	cpi	r18, 0x05	; 5
    350c:	31 f4       	brne	.+12     	; 0x351a <irsnd_ISR+0xfaa>
    350e:	8d e0       	ldi	r24, 0x0D	; 13
    3510:	90 e0       	ldi	r25, 0x00	; 0
    3512:	90 93 67 00 	sts	0x0067, r25	; 0x800067 <pause_len.2361+0x1>
    3516:	80 93 66 00 	sts	0x0066, r24	; 0x800066 <pause_len.2361>
    351a:	e2 2f       	mov	r30, r18
    351c:	e6 95       	lsr	r30
    351e:	e6 95       	lsr	r30
    3520:	e6 95       	lsr	r30
    3522:	f0 e0       	ldi	r31, 0x00	; 0
    3524:	ed 52       	subi	r30, 0x2D	; 45
    3526:	ff 4f       	sbci	r31, 0xFF	; 255
    3528:	80 81       	ld	r24, Z
    352a:	90 e0       	ldi	r25, 0x00	; 0
    352c:	30 e0       	ldi	r19, 0x00	; 0
    352e:	20 95       	com	r18
    3530:	30 95       	com	r19
    3532:	27 70       	andi	r18, 0x07	; 7
    3534:	33 27       	eor	r19, r19
    3536:	02 c0       	rjmp	.+4      	; 0x353c <irsnd_ISR+0xfcc>
    3538:	95 95       	asr	r25
    353a:	87 95       	ror	r24
    353c:	2a 95       	dec	r18
    353e:	e2 f7       	brpl	.-8      	; 0x3538 <irsnd_ISR+0xfc8>
    3540:	81 70       	andi	r24, 0x01	; 1
    3542:	01 c0       	rjmp	.+2      	; 0x3546 <irsnd_ISR+0xfd6>
    3544:	81 e0       	ldi	r24, 0x01	; 1
    3546:	90 91 de 00 	lds	r25, 0x00DE	; 0x8000de <irsnd_protocol>
    354a:	97 30       	cpi	r25, 0x07	; 7
    354c:	11 f4       	brne	.+4      	; 0x3552 <irsnd_ISR+0xfe2>
    354e:	91 e0       	ldi	r25, 0x01	; 1
    3550:	89 27       	eor	r24, r25
    3552:	88 23       	and	r24, r24
    3554:	59 f0       	breq	.+22     	; 0x356c <irsnd_ISR+0xffc>
    3556:	80 91 bc 00 	lds	r24, 0x00BC	; 0x8000bc <pulse_counter.2340>
    355a:	90 91 68 00 	lds	r25, 0x0068	; 0x800068 <pulse_len.2360>
    355e:	89 17       	cp	r24, r25
    3560:	00 f1       	brcs	.+64     	; 0x35a2 <irsnd_ISR+0x1032>
    3562:	80 91 ba 00 	lds	r24, 0x00BA	; 0x8000ba <pause_counter.2341>
    3566:	90 91 bb 00 	lds	r25, 0x00BB	; 0x8000bb <pause_counter.2341+0x1>
    356a:	0b c0       	rjmp	.+22     	; 0x3582 <irsnd_ISR+0x1012>
    356c:	80 91 ba 00 	lds	r24, 0x00BA	; 0x8000ba <pause_counter.2341>
    3570:	90 91 bb 00 	lds	r25, 0x00BB	; 0x8000bb <pause_counter.2341+0x1>
    3574:	20 91 66 00 	lds	r18, 0x0066	; 0x800066 <pause_len.2361>
    3578:	30 91 67 00 	lds	r19, 0x0067	; 0x800067 <pause_len.2361+0x1>
    357c:	82 17       	cp	r24, r18
    357e:	93 07       	cpc	r25, r19
    3580:	70 f4       	brcc	.+28     	; 0x359e <irsnd_ISR+0x102e>
    3582:	89 2b       	or	r24, r25
    3584:	11 f4       	brne	.+4      	; 0x358a <irsnd_ISR+0x101a>
    3586:	0e 94 6a 0e 	call	0x1cd4	; 0x1cd4 <irsnd_off>
    358a:	80 91 ba 00 	lds	r24, 0x00BA	; 0x8000ba <pause_counter.2341>
    358e:	90 91 bb 00 	lds	r25, 0x00BB	; 0x8000bb <pause_counter.2341+0x1>
    3592:	01 96       	adiw	r24, 0x01	; 1
    3594:	90 93 bb 00 	sts	0x00BB, r25	; 0x8000bb <pause_counter.2341+0x1>
    3598:	80 93 ba 00 	sts	0x00BA, r24	; 0x8000ba <pause_counter.2341>
    359c:	0e c0       	rjmp	.+28     	; 0x35ba <irsnd_ISR+0x104a>
    359e:	80 91 bc 00 	lds	r24, 0x00BC	; 0x8000bc <pulse_counter.2340>
    35a2:	81 11       	cpse	r24, r1
    35a4:	02 c0       	rjmp	.+4      	; 0x35aa <irsnd_ISR+0x103a>
    35a6:	0e 94 57 0e 	call	0x1cae	; 0x1cae <irsnd_on>
    35aa:	80 91 bc 00 	lds	r24, 0x00BC	; 0x8000bc <pulse_counter.2340>
    35ae:	8f 5f       	subi	r24, 0xFF	; 255
    35b0:	80 93 bc 00 	sts	0x00BC, r24	; 0x8000bc <pulse_counter.2340>
    35b4:	02 c0       	rjmp	.+4      	; 0x35ba <irsnd_ISR+0x104a>
    35b6:	10 92 e0 00 	sts	0x00E0, r1	; 0x8000e0 <irsnd_busy>
    35ba:	80 91 e0 00 	lds	r24, 0x00E0	; 0x8000e0 <irsnd_busy>
    35be:	81 11       	cpse	r24, r1
    35c0:	16 c0       	rjmp	.+44     	; 0x35ee <irsnd_ISR+0x107e>
    35c2:	80 91 b1 00 	lds	r24, 0x00B1	; 0x8000b1 <repeat_counter.2356>
    35c6:	90 91 bd 00 	lds	r25, 0x00BD	; 0x8000bd <n_repeat_frames.2351>
    35ca:	89 17       	cp	r24, r25
    35cc:	38 f4       	brcc	.+14     	; 0x35dc <irsnd_ISR+0x106c>
    35ce:	8f 5f       	subi	r24, 0xFF	; 255
    35d0:	80 93 b1 00 	sts	0x00B1, r24	; 0x8000b1 <repeat_counter.2356>
    35d4:	81 e0       	ldi	r24, 0x01	; 1
    35d6:	80 93 e0 00 	sts	0x00E0, r24	; 0x8000e0 <irsnd_busy>
    35da:	09 c0       	rjmp	.+18     	; 0x35ee <irsnd_ISR+0x107e>
    35dc:	81 e0       	ldi	r24, 0x01	; 1
    35de:	80 93 e0 00 	sts	0x00E0, r24	; 0x8000e0 <irsnd_busy>
    35e2:	80 93 be 00 	sts	0x00BE, r24	; 0x8000be <send_trailer.2338>
    35e6:	10 92 bd 00 	sts	0x00BD, r1	; 0x8000bd <n_repeat_frames.2351>
    35ea:	10 92 b1 00 	sts	0x00B1, r1	; 0x8000b1 <repeat_counter.2356>
    35ee:	80 91 e0 00 	lds	r24, 0x00E0	; 0x8000e0 <irsnd_busy>
    35f2:	08 95       	ret

000035f4 <ledCallback>:
    35f4:	88 23       	and	r24, r24
    35f6:	31 f0       	breq	.+12     	; 0x3604 <ledCallback+0x10>
    35f8:	80 91 e8 00 	lds	r24, 0x00E8	; 0x8000e8 <hcLedActive>
    35fc:	86 ff       	sbrs	r24, 6
    35fe:	02 c0       	rjmp	.+4      	; 0x3604 <ledCallback+0x10>
    3600:	95 9a       	sbi	0x12, 5	; 18
    3602:	08 95       	ret
    3604:	95 98       	cbi	0x12, 5	; 18
    3606:	08 95       	ret

00003608 <timer1_init>:
    3608:	8f e1       	ldi	r24, 0x1F	; 31
    360a:	93 e0       	ldi	r25, 0x03	; 3
    360c:	9b bd       	out	0x2b, r25	; 43
    360e:	8a bd       	out	0x2a, r24	; 42
    3610:	89 e0       	ldi	r24, 0x09	; 9
    3612:	8e bd       	out	0x2e, r24	; 46
    3614:	80 e1       	ldi	r24, 0x10	; 16
    3616:	89 bf       	out	0x39, r24	; 57
    3618:	08 95       	ret

0000361a <main>:
    361a:	cf 93       	push	r28
    361c:	df 93       	push	r29
    361e:	00 d0       	rcall	.+0      	; 0x3620 <main+0x6>
    3620:	00 d0       	rcall	.+0      	; 0x3622 <main+0x8>
    3622:	00 d0       	rcall	.+0      	; 0x3624 <main+0xa>
    3624:	cd b7       	in	r28, 0x3d	; 61
    3626:	de b7       	in	r29, 0x3e	; 62
    3628:	0e 94 92 01 	call	0x324	; 0x324 <hcInitI2C>
    362c:	95 9a       	sbi	0x12, 5	; 18
    362e:	2f ef       	ldi	r18, 0xFF	; 255
    3630:	8e e9       	ldi	r24, 0x9E	; 158
    3632:	94 e2       	ldi	r25, 0x24	; 36
    3634:	21 50       	subi	r18, 0x01	; 1
    3636:	80 40       	sbci	r24, 0x00	; 0
    3638:	90 40       	sbci	r25, 0x00	; 0
    363a:	e1 f7       	brne	.-8      	; 0x3634 <main+0x1a>
    363c:	00 c0       	rjmp	.+0      	; 0x363e <main+0x24>
    363e:	00 00       	nop
    3640:	0e 94 ab 04 	call	0x956	; 0x956 <irmp_init>
    3644:	0e 94 7d 0e 	call	0x1cfa	; 0x1cfa <irsnd_init>
    3648:	0e 94 04 1b 	call	0x3608	; 0x3608 <timer1_init>
    364c:	95 98       	cbi	0x12, 5	; 18
    364e:	8a ef       	ldi	r24, 0xFA	; 250
    3650:	9a e1       	ldi	r25, 0x1A	; 26
    3652:	0e 94 b0 05 	call	0xb60	; 0xb60 <irmp_set_callback_ptr>
    3656:	8a ef       	ldi	r24, 0xFA	; 250
    3658:	9a e1       	ldi	r25, 0x1A	; 26
    365a:	0e 94 87 0e 	call	0x1d0e	; 0x1d0e <irsnd_set_callback_ptr>
    365e:	ce 01       	movw	r24, r28
    3660:	01 96       	adiw	r24, 0x01	; 1
    3662:	0e 94 ae 04 	call	0x95c	; 0x95c <irmp_get_data>
    3666:	88 23       	and	r24, r24
    3668:	d1 f3       	breq	.-12     	; 0x365e <main+0x44>
    366a:	80 91 2c 01 	lds	r24, 0x012C	; 0x80012c <hcI2cDataChangedLength>
    366e:	8a 31       	cpi	r24, 0x1A	; 26
    3670:	08 f0       	brcs	.+2      	; 0x3674 <main+0x5a>
    3672:	80 e0       	ldi	r24, 0x00	; 0
    3674:	e8 2f       	mov	r30, r24
    3676:	f0 e0       	ldi	r31, 0x00	; 0
    3678:	e9 5c       	subi	r30, 0xC9	; 201
    367a:	fe 4f       	sbci	r31, 0xFE	; 254
    367c:	99 81       	ldd	r25, Y+1	; 0x01
    367e:	90 83       	st	Z, r25
    3680:	9a 81       	ldd	r25, Y+2	; 0x02
    3682:	2b 81       	ldd	r18, Y+3	; 0x03
    3684:	e1 e0       	ldi	r30, 0x01	; 1
    3686:	e8 0f       	add	r30, r24
    3688:	f0 e0       	ldi	r31, 0x00	; 0
    368a:	e9 5c       	subi	r30, 0xC9	; 201
    368c:	fe 4f       	sbci	r31, 0xFE	; 254
    368e:	20 83       	st	Z, r18
    3690:	e2 e0       	ldi	r30, 0x02	; 2
    3692:	e8 0f       	add	r30, r24
    3694:	f0 e0       	ldi	r31, 0x00	; 0
    3696:	e9 5c       	subi	r30, 0xC9	; 201
    3698:	fe 4f       	sbci	r31, 0xFE	; 254
    369a:	90 83       	st	Z, r25
    369c:	9c 81       	ldd	r25, Y+4	; 0x04
    369e:	2d 81       	ldd	r18, Y+5	; 0x05
    36a0:	e3 e0       	ldi	r30, 0x03	; 3
    36a2:	e8 0f       	add	r30, r24
    36a4:	f0 e0       	ldi	r31, 0x00	; 0
    36a6:	e9 5c       	subi	r30, 0xC9	; 201
    36a8:	fe 4f       	sbci	r31, 0xFE	; 254
    36aa:	20 83       	st	Z, r18
    36ac:	e4 e0       	ldi	r30, 0x04	; 4
    36ae:	e8 0f       	add	r30, r24
    36b0:	f0 e0       	ldi	r31, 0x00	; 0
    36b2:	e9 5c       	subi	r30, 0xC9	; 201
    36b4:	fe 4f       	sbci	r31, 0xFE	; 254
    36b6:	90 83       	st	Z, r25
    36b8:	8b 5f       	subi	r24, 0xFB	; 251
    36ba:	80 93 2c 01 	sts	0x012C, r24	; 0x80012c <hcI2cDataChangedLength>
    36be:	cf cf       	rjmp	.-98     	; 0x365e <main+0x44>

000036c0 <getChangedData>:
    36c0:	20 91 2c 01 	lds	r18, 0x012C	; 0x80012c <hcI2cDataChangedLength>
    36c4:	e7 e3       	ldi	r30, 0x37	; 55
    36c6:	f1 e0       	ldi	r31, 0x01	; 1
    36c8:	ac e0       	ldi	r26, 0x0C	; 12
    36ca:	b1 e0       	ldi	r27, 0x01	; 1
    36cc:	90 e0       	ldi	r25, 0x00	; 0
    36ce:	81 e0       	ldi	r24, 0x01	; 1
    36d0:	89 0f       	add	r24, r25
    36d2:	92 17       	cp	r25, r18
    36d4:	21 f0       	breq	.+8      	; 0x36de <getChangedData+0x1e>
    36d6:	91 91       	ld	r25, Z+
    36d8:	9d 93       	st	X+, r25
    36da:	98 2f       	mov	r25, r24
    36dc:	f8 cf       	rjmp	.-16     	; 0x36ce <getChangedData+0xe>
    36de:	10 92 2c 01 	sts	0x012C, r1	; 0x80012c <hcI2cDataChangedLength>
    36e2:	08 95       	ret

000036e4 <setData>:
    36e4:	cf 93       	push	r28
    36e6:	df 93       	push	r29
    36e8:	00 d0       	rcall	.+0      	; 0x36ea <setData+0x6>
    36ea:	00 d0       	rcall	.+0      	; 0x36ec <setData+0x8>
    36ec:	00 d0       	rcall	.+0      	; 0x36ee <setData+0xa>
    36ee:	cd b7       	in	r28, 0x3d	; 61
    36f0:	de b7       	in	r29, 0x3e	; 62
    36f2:	80 91 eb 00 	lds	r24, 0x00EB	; 0x8000eb <hcI2cReadBuffer>
    36f6:	81 11       	cpse	r24, r1
    36f8:	25 c0       	rjmp	.+74     	; 0x3744 <setData+0x60>
    36fa:	80 91 ed 00 	lds	r24, 0x00ED	; 0x8000ed <hcI2cReadBuffer+0x2>
    36fe:	89 83       	std	Y+1, r24	; 0x01
    3700:	80 91 ee 00 	lds	r24, 0x00EE	; 0x8000ee <hcI2cReadBuffer+0x3>
    3704:	90 e0       	ldi	r25, 0x00	; 0
    3706:	98 2f       	mov	r25, r24
    3708:	88 27       	eor	r24, r24
    370a:	20 91 ef 00 	lds	r18, 0x00EF	; 0x8000ef <hcI2cReadBuffer+0x4>
    370e:	82 0f       	add	r24, r18
    3710:	91 1d       	adc	r25, r1
    3712:	9b 83       	std	Y+3, r25	; 0x03
    3714:	8a 83       	std	Y+2, r24	; 0x02
    3716:	80 91 f0 00 	lds	r24, 0x00F0	; 0x8000f0 <hcI2cReadBuffer+0x5>
    371a:	90 e0       	ldi	r25, 0x00	; 0
    371c:	98 2f       	mov	r25, r24
    371e:	88 27       	eor	r24, r24
    3720:	20 91 f1 00 	lds	r18, 0x00F1	; 0x8000f1 <hcI2cReadBuffer+0x6>
    3724:	82 0f       	add	r24, r18
    3726:	91 1d       	adc	r25, r1
    3728:	9d 83       	std	Y+5, r25	; 0x05
    372a:	8c 83       	std	Y+4, r24	; 0x04
    372c:	1e 82       	std	Y+6, r1	; 0x06
    372e:	60 e0       	ldi	r22, 0x00	; 0
    3730:	ce 01       	movw	r24, r28
    3732:	01 96       	adiw	r24, 0x01	; 1
    3734:	0e 94 8c 0e 	call	0x1d18	; 0x1d18 <irsnd_send_data>
    3738:	8f e2       	ldi	r24, 0x2F	; 47
    373a:	95 e7       	ldi	r25, 0x75	; 117
    373c:	01 97       	sbiw	r24, 0x01	; 1
    373e:	f1 f7       	brne	.-4      	; 0x373c <setData+0x58>
    3740:	00 c0       	rjmp	.+0      	; 0x3742 <setData+0x5e>
    3742:	00 00       	nop
    3744:	26 96       	adiw	r28, 0x06	; 6
    3746:	0f b6       	in	r0, 0x3f	; 63
    3748:	f8 94       	cli
    374a:	de bf       	out	0x3e, r29	; 62
    374c:	0f be       	out	0x3f, r0	; 63
    374e:	cd bf       	out	0x3d, r28	; 61
    3750:	df 91       	pop	r29
    3752:	cf 91       	pop	r28
    3754:	08 95       	ret

00003756 <__vector_6>:
    3756:	1f 92       	push	r1
    3758:	0f 92       	push	r0
    375a:	0f b6       	in	r0, 0x3f	; 63
    375c:	0f 92       	push	r0
    375e:	11 24       	eor	r1, r1
    3760:	2f 93       	push	r18
    3762:	3f 93       	push	r19
    3764:	4f 93       	push	r20
    3766:	5f 93       	push	r21
    3768:	6f 93       	push	r22
    376a:	7f 93       	push	r23
    376c:	8f 93       	push	r24
    376e:	9f 93       	push	r25
    3770:	af 93       	push	r26
    3772:	bf 93       	push	r27
    3774:	ef 93       	push	r30
    3776:	ff 93       	push	r31
    3778:	0e 94 b8 12 	call	0x2570	; 0x2570 <irsnd_ISR>
    377c:	81 11       	cpse	r24, r1
    377e:	02 c0       	rjmp	.+4      	; 0x3784 <__vector_6+0x2e>
    3780:	0e 94 b5 05 	call	0xb6a	; 0xb6a <irmp_ISR>
    3784:	ff 91       	pop	r31
    3786:	ef 91       	pop	r30
    3788:	bf 91       	pop	r27
    378a:	af 91       	pop	r26
    378c:	9f 91       	pop	r25
    378e:	8f 91       	pop	r24
    3790:	7f 91       	pop	r23
    3792:	6f 91       	pop	r22
    3794:	5f 91       	pop	r21
    3796:	4f 91       	pop	r20
    3798:	3f 91       	pop	r19
    379a:	2f 91       	pop	r18
    379c:	0f 90       	pop	r0
    379e:	0f be       	out	0x3f, r0	; 63
    37a0:	0f 90       	pop	r0
    37a2:	1f 90       	pop	r1
    37a4:	18 95       	reti

000037a6 <__tablejump2__>:
    37a6:	ee 0f       	add	r30, r30
    37a8:	ff 1f       	adc	r31, r31
    37aa:	05 90       	lpm	r0, Z+
    37ac:	f4 91       	lpm	r31, Z
    37ae:	e0 2d       	mov	r30, r0
    37b0:	09 94       	ijmp

000037b2 <memcpy_P>:
    37b2:	fb 01       	movw	r30, r22
    37b4:	dc 01       	movw	r26, r24
    37b6:	02 c0       	rjmp	.+4      	; 0x37bc <memcpy_P+0xa>
    37b8:	05 90       	lpm	r0, Z+
    37ba:	0d 92       	st	X+, r0
    37bc:	41 50       	subi	r20, 0x01	; 1
    37be:	50 40       	sbci	r21, 0x00	; 0
    37c0:	d8 f7       	brcc	.-10     	; 0x37b8 <memcpy_P+0x6>
    37c2:	08 95       	ret

000037c4 <eeprom_read_byte>:
    37c4:	e1 99       	sbic	0x1c, 1	; 28
    37c6:	fe cf       	rjmp	.-4      	; 0x37c4 <eeprom_read_byte>
    37c8:	9f bb       	out	0x1f, r25	; 31
    37ca:	8e bb       	out	0x1e, r24	; 30
    37cc:	e0 9a       	sbi	0x1c, 0	; 28
    37ce:	99 27       	eor	r25, r25
    37d0:	8d b3       	in	r24, 0x1d	; 29
    37d2:	08 95       	ret

000037d4 <eeprom_update_byte>:
    37d4:	26 2f       	mov	r18, r22

000037d6 <eeprom_update_r18>:
    37d6:	e1 99       	sbic	0x1c, 1	; 28
    37d8:	fe cf       	rjmp	.-4      	; 0x37d6 <eeprom_update_r18>
    37da:	9f bb       	out	0x1f, r25	; 31
    37dc:	8e bb       	out	0x1e, r24	; 30
    37de:	e0 9a       	sbi	0x1c, 0	; 28
    37e0:	01 97       	sbiw	r24, 0x01	; 1
    37e2:	0d b2       	in	r0, 0x1d	; 29
    37e4:	02 16       	cp	r0, r18
    37e6:	31 f0       	breq	.+12     	; 0x37f4 <eeprom_update_r18+0x1e>
    37e8:	2d bb       	out	0x1d, r18	; 29
    37ea:	0f b6       	in	r0, 0x3f	; 63
    37ec:	f8 94       	cli
    37ee:	e2 9a       	sbi	0x1c, 2	; 28
    37f0:	e1 9a       	sbi	0x1c, 1	; 28
    37f2:	0f be       	out	0x3f, r0	; 63
    37f4:	08 95       	ret

000037f6 <eeprom_write_byte>:
    37f6:	26 2f       	mov	r18, r22

000037f8 <eeprom_write_r18>:
    37f8:	e1 99       	sbic	0x1c, 1	; 28
    37fa:	fe cf       	rjmp	.-4      	; 0x37f8 <eeprom_write_r18>
    37fc:	9f bb       	out	0x1f, r25	; 31
    37fe:	8e bb       	out	0x1e, r24	; 30
    3800:	2d bb       	out	0x1d, r18	; 29
    3802:	0f b6       	in	r0, 0x3f	; 63
    3804:	f8 94       	cli
    3806:	e2 9a       	sbi	0x1c, 2	; 28
    3808:	e1 9a       	sbi	0x1c, 1	; 28
    380a:	0f be       	out	0x3f, r0	; 63
    380c:	01 96       	adiw	r24, 0x01	; 1
    380e:	08 95       	ret

00003810 <_exit>:
    3810:	f8 94       	cli

00003812 <__stop_program>:
    3812:	ff cf       	rjmp	.-2      	; 0x3812 <__stop_program>
